(lp1
Vhttp://128.32.78.37:8080/activities/86b6c01e7e714eebb3c4fc2f26cfd8c8
p2
aVhttp://128.32.78.37:8080/activities/d69aea1608a14acf8f3674c42b6826f4
p3
aVhttp://128.32.78.37:8080/activities/d818777d908b4666b3d2a5928828eca7
p4
aVhttp://128.32.78.37:8080/activities/848548c9822a4b88b5c75942538bd67d
p5
aVhttp://128.32.78.37:8080/activities/3e7157c7c4184762a2dc3080d1696bdc
p6
aVhttp://128.32.78.37:8080/activities/14b35886583447ec98c0fe99d58d095b
p7
aVhttp://128.32.78.37:8080/activities/2ad1440d358f41f8ac7590088b071b95
p8
aVhttp://128.32.78.37:8080/activities/b4cedcf86ef947ca9573e7a07e8cf5ec
p9
aVhttp://128.32.78.37:8080/activities/78c3d3d428304f86890cdf75aae95e2d
p10
aVhttp://128.32.78.37:8080/activities/c47a2837a72940aead63d2c7004d789f
p11
aVhttp://128.32.78.37:8080/activities/f68da64833944c2e8190d6cbe77154cb
p12
aVhttp://128.32.78.37:8080/activities/50dc86829864435bb2158bf9388454c7
p13
aVhttp://128.32.78.37:8080/activities/d1596e2cd94f42de9a3f022bc978f1bf
p14
aVhttp://128.32.78.37:8080/activities/8157c0f197f94f2e9d43ac7ddaa3bdf0
p15
aVhttp://128.32.78.37:8080/activities/8c4184d307d242e8a0caa6c09b9fae68
p16
aVhttp://128.32.78.37:8080/activities/4df2b69e46f442bd85a20926706b3ac3
p17
aVhttp://128.32.78.37:8080/activities/085d8e689a414f299fe3e42a89555ae4
p18
aVhttp://128.32.78.37:8080/activities/03d11eb4b423415a8902d3de5fb2d7c6
p19
aVhttp://128.32.78.37:8080/activities/86731c1d68794184ab5008c3c2bbe6fd
p20
aVhttp://128.32.78.37:8080/activities/1fe1094c337547b8b2214d5594384d17
p21
aVhttp://128.32.78.37:8080/activities/8ba955ff1567463e9713becca358836b
p22
aVhttp://128.32.78.37:8080/activities/2382c1bc160145e599cec26fa50b7beb
p23
aVhttp://128.32.78.37:8080/activities/893daf6ea95e4a4b8d5bead89e8f8472
p24
aVhttp://128.32.78.37:8080/activities/46331058d70a4f2aabad982b0f40a8b6
p25
aVhttp://128.32.78.37:8080/activities/2d3714971e064f60abfe0c9ca7547bb0
p26
aVhttp://128.32.78.37:8080/activities/db208695ecba480ca0e1b2da8ce85cd1
p27
aVhttp://128.32.78.37:8080/activities/9f43202efe6c40aca9d3fb14f8aa3866
p28
aVhttp://128.32.78.37:8080/activities/fb4f96777cb0423e864c19eae5027d3d
p29
aVhttp://128.32.78.37:8080/activities/545bec0cb33742eaa4a4f5e1817e636e
p30
aVhttp://128.32.78.37:8080/activities/1da31b86973d486ea599baa8a27091cb
p31
aVhttp://128.32.78.37:8080/activities/ae464c77c3404bb28e09ef75660989a3
p32
aVhttp://128.32.78.37:8080/activities/cdc17ee032644b67b5005e9839a16747
p33
aVhttp://128.32.78.37:8080/activities/4c87d64e5f7b4d0baa9c6ae26aefcac1
p34
aVhttp://128.32.78.37:8080/activities/4762d861e75449ccbaba0fb17896cd3f
p35
aVhttp://128.32.78.37:8080/activities/0051d043641c4c109c8c56455ab82ae8
p36
aVhttp://128.32.78.37:8080/activities/d70265bca11040499772a8ff9ec572cf
p37
aVhttp://128.32.78.37:8080/activities/cd96ab6f774b459e94e91a80e26a50ae
p38
aVhttp://128.32.78.37:8080/activities/2ffd1aab6ed24e3ab3743fff9a0d74d0
p39
aVhttp://128.32.78.37:8080/activities/16c81640d1034f498d16adf6214fb6f7
p40
aVhttp://128.32.78.37:8080/activities/4cf6573ef281438ea39bdf53e0f78cee
p41
aVhttp://128.32.78.37:8080/activities/4236ff89028446279198bd833792320e
p42
aVhttp://128.32.78.37:8080/activities/2a5475a9cfe644458c78b9780908f14a
p43
aVhttp://128.32.78.37:8080/activities/347440e6afbb4d0ab4b7ed0883ea18ca
p44
aVhttp://128.32.78.37:8080/activities/524ce53b8d5b4d6b852d07f7202420f7
p45
aVhttp://128.32.78.37:8080/activities/7dd12f569c314bceab18853209f3376b
p46
aVhttp://128.32.78.37:8080/activities/107e18d168ff4c0f9dd043e4446e5350
p47
aVhttp://128.32.78.37:8080/activities/a1a279c2067c4426b12cfbec544439e6
p48
aVchairID
p49
aVhttp://128.32.78.37:8080/activities/9cb4b33c8fb04992b9ba9f41ef0681ab
p50
aVhttp://128.32.78.37:8080/activities/ddf2352aa3f14c6687ab787297a09cac
p51
aVhttp://128.32.78.37:8080/activities/9aa67b4b22974470a0ecc6455dc982ed
p52
aVhttp://128.32.78.37:8080/activities/b696d591545d4dbea941b68c62006662
p53
aVhttp://128.32.78.37:8080/activities/7a985df8e8a74b93ae641d516d2c797a
p54
aVhttp://128.32.78.37:8080/activities/41f405d41b0649beb2666d90c0acaf00
p55
aVhttp://128.32.78.37:8080/activities/05f3beed774f4b138e69efa8e7d404ff
p56
aVhttp://128.32.78.37:8080/activities/67cf005924494d0ca067b6349f9a294a
p57
aVhttp://128.32.78.37:8080/activities/0c3afebaeda448b3a5a76b2cb90feab8
p58
aVhttp://128.32.78.37:8080/activities/aa75e6e3ed1c483683ae75e4f7dccc9b
p59
aVhttp://128.32.78.37:8080/activities/e1403bccc59643b998c7bb91ae41c2ec
p60
aVhttp://128.32.78.37:8080/activities/7cf0cea854b84237870ea2b910c9c679
p61
aVhttp://128.32.78.37:8080/activities/67c4e086cefe424c966fad7b6836e193
p62
aVhttp://128.32.78.37:8080/activities/4c52eb33de594e6aa39a10c6f7f62139
p63
aVhttp://128.32.78.37:8080/activities/63a91c495fac426cbda1b3f1b176504a
p64
aVhttp://128.32.78.37:8080/activities/5c48f2ab79294f74a6eb6d9c20ac2c8e
p65
aVhttp://128.32.78.37:8080/activities/d0ab627a6e05492aa253a4ff67e6f926
p66
aVhttp://128.32.78.37:8080/activities/bee3b54b6a77443a82e51e1852f6dd3d
p67
aVhttp://128.32.78.37:8080/activities/bc9cfac987194aa692cb26be58286fef
p68
aVhttp://128.32.78.37:8080/activities/1321fd32eee84ceb940f3fa35bed32b7
p69
aVhttp://128.32.78.37:8080/activities/9b7e90e54df047169c61a9cc56b3c946
p70
aVhttp://128.32.78.37:8080/activities/686efcebc87a4c3cabc3f8109a9b8d85
p71
aVhttp://128.32.78.37:8080/activities/88a1051a6fbc4983ba911ea6e845d9c3
p72
aVhttp://128.32.78.37:8080/activities/dcecfb41010e4ee984a6c74cb794dbd3
p73
aVhttp://128.32.78.37:8080/activities/43ed1d2a21b64d39ae7becd6d8685ea8
p74
aVhttp://128.32.78.37:8080/activities/884f3355c1194199b74f6a59fb107ca7
p75
aVhttp://128.32.78.37:8080/activities/6d628c06ea354116b24e781c034bf9ce
p76
aVhttp://128.32.78.37:8080/activities/3efdf23ce7b841ec9f5707201804efe6
p77
aVhttp://128.32.78.37:8080/activities/7bf8a167d7954ab69e399662685ca7d9
p78
aVhttp://128.32.78.37:8080/activities/f1edda75917b419fa48629340b15e820
p79
aVhttp://128.32.78.37:8080/activities/ae041d512c4c4a9bbce99e81099224c6
p80
aVhttp://128.32.78.37:8080/activities/abc04fa29eed4dffa6ecf43780abada3
p81
aVhttp://128.32.78.37:8080/activities/8172e7f83c4d410fa55803aef194bf8e
p82
aVhttp://128.32.78.37:8080/activities/e17178875cbc43ea8a6ac1ec71b57fc5
p83
aVhttp://128.32.78.37:8080/activities/4c7d8140f1eb44149dca6b5e62fe70e5
p84
aVhttp://128.32.78.37:8080/activities/9f53d49765f74b3fa6f9c38c8a445fe5
p85
aVhttp://128.32.78.37:8080/activities/3433ac623657405a8920aec41ba0861e
p86
aVhttp://128.32.78.37:8080/activities/a2458e5a88d745c08bef07161189cd80
p87
aVhttp://128.32.78.37:8080/activities/88af0408f076428fb6f56e85985893ff
p88
aVhttp://128.32.78.37:8080/activities/d7abfc6f0698421e9d5fd2e71ecd966d
p89
aVhttp://128.32.78.37:8080/activities/bcf36c8161c748c09202f988e0ddcf93
p90
aVhttp://128.32.78.37:8080/activities/f3c217bbdedf48dfb0afef116a6f6cb9
p91
aVhttp://128.32.78.37:8080/activities/32c370c2c868443ca1a1456ea18868af
p92
aVhttp://128.32.78.37:8080/activities/d78d5a6535c74e1ba9427928c779c152
p93
aVhttp://128.32.78.37:8080/activities/58c63e67d3bf427cad8e47834ad724c6
p94
aVhttp://128.32.78.37:8080/activities/6289fddc03244b71999176cbac631a68
p95
aVhttp://128.32.78.37:8080/activities/2bcf8b334fd64487929ba941ef8986dc
p96
aVhttp://128.32.78.37:8080/activities/c627ec8618f141b88897ac027d429181
p97
aVhttp://128.32.78.37:8080/activities/0314791b020a4600b49c614364e6df1a
p98
aVhttp://128.32.78.37:8080/activities/9fd149a7ee7745989836116d5506c2f0
p99
aVhttp://128.32.78.37:8080/activities/636df35102394d6c8cd76f85b9fa9c8b
p100
aVhttp://128.32.78.37:8080/activities/129d320b9d324ac0a8b77794cd7aaaf6
p101
aVhttp://128.32.78.37:8080/activities/3748a5dd83aa491bae0eb803d11c8f8f
p102
aVhttp://128.32.78.37:8080/activities/b2fb6f74b038409d8c5458ab2784e9b2
p103
aVhttp://128.32.78.37:8080/activities/db9ad851b48741b2bce8fa374bec235d
p104
aVhttp://128.32.78.37:8080/activities/736e58620c6f445ab8331d58b33a4528
p105
aVhttp://128.32.78.37:8080/activities/1370b91665cb42e690ee1049f07cb670
p106
aVhttp://128.32.78.37:8080/activities/de6cc21bc7404ae8977d7bb257d990f4
p107
aVhttp://128.32.78.37:8080/activities/e379a329756345208d6d34a27bc4bc61
p108
aVhttp://128.32.78.37:8080/activities/bd1837208fbe4aa9b4ab619c45565888
p109
aVhttp://128.32.78.37:8080/activities/19a1a897770e4f58bb9fe0d607ae7dff
p110
aVhttp://128.32.78.37:8080/activities/c1dc6dcb45954d808c01698c6a2bb258
p111
aVhttp://128.32.78.37:8080/activities/05f132d489f64f6888a4099cd42c1328
p112
aVhttp://128.32.78.37:8080/activities/d2abeac2fdb24df79e7ecd280055f802
p113
aVhttp://128.32.78.37:8080/activities/fd8897f2485f4386ad2aa3344067f4c1
p114
aVhttp://128.32.78.37:8080/activities/4b2e5f18266f4b1fa3c3767d9ea4fd19
p115
aVhttp://128.32.78.37:8080/activities/9d64842a632f4c2db6191d8707734b9b
p116
aVhttp://128.32.78.37:8080/activities/e007d66394504e2a8b84d1f746c4479d
p117
aVhttp://128.32.78.37:8080/activities/feb0ca62eeff40989d360c4c4eb45ecf
p118
aVhttp://128.32.78.37:8080/activities/4e5e55d8c4e94a84a055ca3cf6127c77
p119
aVhttp://128.32.78.37:8080/activities/6e8b2daa48e6411ab26ecfbd0802d269
p120
aVhttp://128.32.78.37:8080/activities/20b9731520984e9c9863f16d11c35ca9
p121
aVhttp://128.32.78.37:8080/activities/ef97ec8bb12641b2829560b6c9059e96
p122
aVhttp://128.32.78.37:8080/activities/97b2a84a86fa40d19bf1f2cc0b318ea1
p123
aVhttp://128.32.78.37:8080/activities/a89403bbdbbb458887a496d73d31a301
p124
aVhttp://128.32.78.37:8080/activities/7133b45c614c42588cbc3ceb1e3f3747
p125
aVhttp://128.32.78.37:8080/activities/d93eccc7ecae4dc1912780fdc7651e4d
p126
aVhttp://128.32.78.37:8080/activities/ba4e469736be44b19c153d11e1f0c189
p127
aVhttp://128.32.78.37:8080/activities/946f09ee7f6949c2b47b1a6875ada784
p128
aVhttp://128.32.78.37:8080/activities/17e6333e9c8143aca87b26c8334f642f
p129
aVhttp://128.32.78.37:8080/activities/9701ced304d74a6480b94684dc220e53
p130
aVhttp://128.32.78.37:8080/activities/eef808894ace4e868439660e6586e113
p131
aVhttp://128.32.78.37:8080/activities/d4ef1e9e660c4d349dc9ea0e5b8d987a
p132
aVhttp://128.32.78.37:8080/activities/78a9553c0bf14f41a770770b1a18a8e7
p133
aVhttp://128.32.78.37:8080/activities/ce581b9120244d6a9470a22a61dc3f81
p134
aVhttp://128.32.78.37:8080/activities/08ec64015f02449fb14bd5aa8a2c3f30
p135
aVhttp://128.32.78.37:8080/activities/7ffc482e156146cb93ec9775a17ea6d2
p136
aVhttp://128.32.78.37:8080/activities/1f9eb4ff19574a72a928fa658da45708
p137
aVhttp://128.32.78.37:8080/activities/3c84e9d27b794ab19030a1d34771cdec
p138
aVhttp://128.32.78.37:8080/activities/8e92f68820ae4c29ae5b7e6047531d33
p139
aVhttp://128.32.78.37:8080/activities/aa20c7a804c144a1a87c538460b37cfd
p140
aVhttp://128.32.78.37:8080/activities/e87ae52caa714028978880e3fdcc9915
p141
aVhttp://128.32.78.37:8080/activities/37511cbfd43842058d30f8b8d3b68dd0
p142
aVhttp://128.32.78.37:8080/activities/2af20ea91bb64bb58e3daec76d485f43
p143
aVhttp://128.32.78.37:8080/activities/a90f8b5832c046d69c8236a7799a1172
p144
aVhttp://128.32.78.37:8080/activities/b6ad75fd087449fdb93da13722b0fde2
p145
aVhttp://128.32.78.37:8080/activities/d66d7011532b44f198bb4e6fe40fb7f3
p146
aVhttp://128.32.78.37:8080/activities/0712a043019345d09181c2ef3aa8b815
p147
aVhttp://128.32.78.37:8080/activities/e6d680bbf8c340c8bd598303e5e1712d
p148
aVhttp://128.32.78.37:8080/activities/f55ba9ce832b4d3698aa53cb1a46aabf
p149
aVhttp://128.32.78.37:8080/activities/2e362195908c4f3989c369cd12e36a1f
p150
aVhttp://128.32.78.37:8080/activities/6d7861920eb74ae2ad745b60265addf7
p151
aVhttp://128.32.78.37:8080/activities/7a8e4cd6508e4094a12aedfb7f967af2
p152
aVhttp://128.32.78.37:8080/activities/b86c3d561237448ab50179e6f3d41fc8
p153
aVhttp://128.32.78.37:8080/activities/3877d889e5864f8198b00bd6d897a073
p154
aVhttp://128.32.78.37:8080/activities/10e91ada70544574a9c810563544bcf1
p155
aVhttp://128.32.78.37:8080/activities/3c8ca9316222412c86d424c1a90776ae
p156
aVhttp://128.32.78.37:8080/activities/55ba1fca88a241f6ace0924d0b2ea38a
p157
aVhttp://128.32.78.37:8080/activities/6a19006989094d399df619621e5fe707
p158
aVhttp://128.32.78.37:8080/activities/f0abfd8ac6c34476ad7247975fee4c61
p159
aVhttp://128.32.78.37:8080/activities/b6f180cba97846cabc1d5ee5d696c954
p160
aVhttp://128.32.78.37:8080/activities/5e9b12a413ec43b59d688d876ab40d76
p161
aVhttp://128.32.78.37:8080/activities/0b99b86013e04460beb994cb95f48e3a
p162
aVhttp://128.32.78.37:8080/activities/b9d35989243a4f27a80c320ca492d032
p163
aVhttp://128.32.78.37:8080/activities/6c33873e490244e0b07ad3898d814c33
p164
aVhttp://128.32.78.37:8080/activities/56f07b1df8e442fdbd5093c85efd98fc
p165
aVhttp://128.32.78.37:8080/activities/8103f637445e480fbbcc208179480304
p166
aVhttp://128.32.78.37:8080/activities/aaddac2309954acfbd000a026e3daffc
p167
aVhttp://128.32.78.37:8080/activities/7eaea54e12dc4ab6b471aeb60c99eb91
p168
aVhttp://128.32.78.37:8080/activities/7d2b73460b98475a8ffe3d9f9d031a8c
p169
aVhttp://128.32.78.37:8080/activities/8437b2d25386441dafe5edf862471729
p170
aVhttp://128.32.78.37:8080/activities/77ed96f1160542c59059f54d4d5b312c
p171
aV
aVhttp://128.32.78.37:8080/activities/c8bc6fe6917c4db6a358ab7cc1d52f4c
p172
aVhttp://128.32.78.37:8080/activities/c095deceaa884d41b7fe979c33ed7947
p173
aVhttp://128.32.78.37:8080/activities/42afd977e6fe44de84bc09a1502414db
p174
aVhttp://128.32.78.37:8080/activities/253ce662c27a48d5a4c24a3790cb40df
p175
aVhttp://128.32.78.37:8080/activities/bb159d77d6a54c43b13c1021df35d246
p176
aVhttp://128.32.78.37:8080/activities/7c85c58802304820b281625ef96eae6f
p177
aVhttp://128.32.78.37:8080/activities/3e3501d0745743f18e59d0e347d0b25f
p178
aVhttp://128.32.78.37:8080/activities/f3ed806b74334181a0f445805b4d65c2
p179
aVhttp://128.32.78.37:8080/activities/d35cfdb6b5dd4762936d30696da4e6bf
p180
aVhttp://128.32.78.37:8080/activities/b2df82940fe04fe9b2292bab9e05ecb1
p181
aVhttp://128.32.78.37:8080/activities/40ad77bc27cb4759aaf36aafb9bf641e
p182
aVhttp://128.32.78.37:8080/activities/e19c4a8fac8447d7b0d67c5af69c9dbf
p183
aVhttp://128.32.78.37:8080/activities/946fa36354f9409ea106f7b94b3eb827
p184
aVhttp://128.32.78.37:8080/activities/5a87df1773d7404cb770e989772c1964
p185
aVhttp://128.32.78.37:8080/activities/f20d70760a894dc79baaa3c433fe32f3
p186
aVhttp://128.32.78.37:8080/activities/c1d2744fe3264e0d9b0fa4d31f91a0ed
p187
aVhttp://128.32.78.37:8080/activities/0bf637d2b7e3495abe8656d4b148f0f1
p188
aVhttp://128.32.78.37:8080/activities/4e23686fbfe146c1bf64c0678f978dbd
p189
aVhttp://128.32.78.37:8080/activities/82779dd57587410a8322979c3d560214
p190
aVhttp://128.32.78.37:8080/activities/b985a28150984a66ab244627ea86d8cd
p191
aVhttp://128.32.78.37:8080/activities/1a5f4a1e8111479d88f9bc82c60be875
p192
aVhttp://128.32.78.37:8080/activities/8bd672553c934393b0b6e0f30520cc79
p193
aVhttp://128.32.78.37:8080/activities/06eceac318a14064bd7eef5c699fcede
p194
aVhttp://128.32.78.37:8080/activities/c40a9f1abf5a406dbbbdbecb017eaf97
p195
aVhttp://128.32.78.37:8080/activities/506fb1a5a3bc410aa798c66284b02363
p196
aVhttp://128.32.78.37:8080/activities/661f5d5ae01c485380d22aea6f574b78
p197
aVhttp://128.32.78.37:8080/activities/521fff09fee74567a7a2001f2bffe016
p198
aVhttp://128.32.78.37:8080/activities/6d7026347e584061839309b512d159c1
p199
aVhttp://128.32.78.37:8080/activities/ee9d18f6fb6342cd8073835446f530f8
p200
aVhttp://128.32.78.37:8080/activities/00da8a0094f243dfa146dc054ad6fe24
p201
aVhttp://128.32.78.37:8080/activities/ea1c4c4f76774ef9bef17f7252e066fa
p202
aVhttp://128.32.78.37:8080/activities/f857f8968a354369ae3617fecb4962ec
p203
aVhttp://128.32.78.37:8080/activities/fa649dd03e18489c8ae433bb2bbded35
p204
aVhttp://128.32.78.37:8080/activities/217618059b26458eac81a71f8a3ed7e9
p205
aVhttp://128.32.78.37:8080/activities/8291f8415084427a8ee7abc89134194e
p206
aVhttp://128.32.78.37:8080/activities/8fa01d655ae14488a4d13bea69dc7871
p207
aVhttp://128.32.78.37:8080/activities/cde9e0549d4647cf84eee032ebba8e6b
p208
aVhttp://128.32.78.37:8080/activities/1e449f0e56ea47e39e0ebba02a208b6f
p209
aVhttp://128.32.78.37:8080/activities/51b91f36028242b1898826463dc166e6
p210
aVhttp://128.32.78.37:8080/activities/8ac45a5718d7486ca220beb3b3b04348
p211
aVhttp://128.32.78.37:8080/activities/7ccd7be272c148848cf8d9b0e89ee7f3
p212
aVhttp://128.32.78.37:8080/activities/786b71afd25546949df39523757cacd1
p213
aVhttp://128.32.78.37:8080/activities/215bb16718f84571b6ada1be97fa53e9
p214
aVhttp://128.32.78.37:8080/activities/9ee7140c1a1b41719bd45a64e67bcf48
p215
aVhttp://128.32.78.37:8080/activities/f1fd5beb3f40444592db10839c84add1
p216
aVhttp://128.32.78.37:8080/activities/d701f72af7454b8dbbc1f34327a85929
p217
aVhttp://128.32.78.37:8080/activities/70ab8d857e384ae6b17db44fb470bb57
p218
aVhttp://128.32.78.37:8080/activities/c21ea1f44b3e46edae98e19e202a1b7d
p219
aVhttp://128.32.78.37:8080/activities/4d4f9f02574f442291573df60fb4b8d6
p220
aVhttp://128.32.78.37:8080/activities/71720b2fa5914ee3b57476664eb63511
p221
aVhttp://128.32.78.37:8080/activities/582daf3a40e84b38aa211d61f5b12082
p222
aVhttp://128.32.78.37:8080/activities/0e61a87f833f4e16bf7d32ffa11959e9
p223
aVhttp://128.32.78.37:8080/activities/72299f46002d40869bedb5a9bb9b72b2
p224
aVhttp://128.32.78.37:8080/activities/7e60f963a69f4edbae3d52d41a48ad2f
p225
aVhttp://128.32.78.37:8080/activities/429bc9953ae04f118b56bbf01bf1695f
p226
aVhttp://128.32.78.37:8080/activities/db119ce78e7b4687a8cccf0d5c7715f3
p227
aVhttp://128.32.78.37:8080/activities/55974ddfaff349a494e48fc05711e421
p228
aVhttp://128.32.78.37:8080/activities/c48c602253cf4eacb1d257db551e51c6
p229
aVhttp://128.32.78.37:8080/activities/cd4447025cd0465abde7632790b4023d
p230
aVhttp://128.32.78.37:8080/activities/4cac1c573d614adeb1277d820c136c9a
p231
aVhttp://128.32.78.37:8080/activities/63dddc4edcb1449583b104e47ca8e1f7
p232
aVhttp://128.32.78.37:8080/activities/be720c8b6613460589fff4a60cfcf287
p233
aVhttp://128.32.78.37:8080/activities/0468f098ff604b9fbf526cbb00f79f17
p234
aVhttp://128.32.78.37:8080/activities/867647ef8f3a4b43bc83b9c7b815ff53
p235
aVhttp://128.32.78.37:8080/activities/fb9d8e144cdc4f3aa20afeffa2093747
p236
aVhttp://128.32.78.37:8080/activities/f76ef412405449deb8127d925a2cac97
p237
aVhttp://128.32.78.37:8080/activities/4e4c7bf762444e6a84f2e2edeb1cd6f5
p238
aVhttp://128.32.78.37:8080/activities/77d1a3ada40648ce99bebaebb4687e63
p239
aVhttp://128.32.78.37:8080/activities/0d6659f365954c168e84bf4130b7cb58
p240
aVhttp://128.32.78.37:8080/activities/85e3828e9ccb4c2193deb6ea474c837c
p241
aVhttp://128.32.78.37:8080/activities/28124ff097464236a7df5443f01e74f0
p242
aVhttp://128.32.78.37:8080/activities/394cd8f9fec04648bf12c9a68d475f70
p243
aVhttp://128.32.78.37:8080/activities/263611a2c041449789bf6b00b0e0d351
p244
aVhttp://128.32.78.37:8080/activities/7c0ae83aa649441c8779c86cee2de5a9
p245
aVhttp://128.32.78.37:8080/activities/21ffa5b8cfb74a168c3b198933c1dc42
p246
aVhttp://128.32.78.37:8080/activities/c1784f2f29204c5493cb48401ed0a4f2
p247
aVhttp://128.32.78.37:8080/activities/69c584d50f9743f3a264b4c13f4f9d1a
p248
aVhttp://128.32.78.37:8080/activities/7c18f4dd353e4e21ba23ce98fb917469
p249
aVhttp://128.32.78.37:8080/activities/9f442f6835ca46febadb14822bd0e686
p250
aVhttp://128.32.78.37:8080/activities/669773b036a04553b782e5a39dbf22b6
p251
aVhttp://128.32.78.37:8080/activities/7e304e5d4a3a4c68bbbef03f5d652cee
p252
aVhttp://128.32.78.37:8080/activities/96e5e278c69243b1a80819d7591adba3
p253
aVhttp://128.32.78.37:8080/activities/5145ad6e592041e0bbb00cfa84ac1eae
p254
aVhttp://128.32.78.37:8080/activities/7aad89f1a5c943768933ce0bf15d3784
p255
aVhttp://128.32.78.37:8080/activities/2e21bb0520aa489b91f9320c300b655c
p256
aVhttp://128.32.78.37:8080/activities/38d6fbef7e5a4dc1a3253ff82b724d34
p257
aVhttp://128.32.78.37:8080/activities/70d79e2629f24ec6a890cd7633e8281e
p258
aVhttp://128.32.78.37:8080/activities/c08a379e2bb144eaa3498d613bf6a682
p259
aVhttp://128.32.78.37:8080/activities/2e73042beb804cf3afede7e207ecfe7e
p260
aVhttp://128.32.78.37:8080/activities/7e72cc9abb87455f944e6cea383eed29
p261
aVhttp://128.32.78.37:8080/activities/5b5c711814f24a1090f4a9a0666c95e9
p262
aVhttp://128.32.78.37:8080/activities/4a09b74a0f354c29a78ca7a82727b29e
p263
aVhttp://128.32.78.37:8080/activities/fb602bc51ace40bb9cb8fb3e0c12abc0
p264
aVhttp://128.32.78.37:8080/activities/2130ee7d610546869b14422fc9cd5902
p265
aVhttp://128.32.78.37:8080/activities/79b9ecb1e78b4e449c9dbc399d63a8bd
p266
aVhttp://128.32.78.37:8080/activities/00c0c0fa3c54454e91d1c4675193266a
p267
aVhttp://128.32.78.37:8080/activities/97b788739e9a4186bd992b8453dba2ca
p268
aVhttp://128.32.78.37:8080/activities/b112079922b7461ea6387f1786d553f8
p269
aVhttp://128.32.78.37:8080/activities/122bba2cbd8a4791904f325604d4c2f7
p270
aVhttp://128.32.78.37:8080/activities/28cdd4fc96c747d180cc5d7b5f4f5a3f
p271
aVhttp://128.32.78.37:8080/activities/beeaa6a4452549c7ab43d54b1e230ab1
p272
aVhttp://128.32.78.37:8080/activities/8c9692c7f63b489697258a9da8ae4f92
p273
aVhttp://128.32.78.37:8080/activities/0b7cf12a50974f6b8136e72e02d40496
p274
aVhttp://128.32.78.37:8080/activities/2f05c8e68a8d4b3d9533c12279e63fd0
p275
aVhttp://128.32.78.37:8080/activities/1d2b075a1ccc484696605497b58bf188
p276
aVhttp://128.32.78.37:8080/activities/a3959ae150554501ba26e7b564b0c0c2
p277
aVhttp://128.32.78.37:8080/activities/548eff5bc33443e0991e8b5ca1026751
p278
aVhttp://128.32.78.37:8080/activities/58bd213dcf5e438ca31a4fe8fca1346f
p279
aVhttp://128.32.78.37:8080/activities/6ce5f67c00864b5387ba0aabf2462597
p280
aVhttp://128.32.78.37:8080/activities/5c690d0ee39744d1b31b321d79066b85
p281
aVhttp://128.32.78.37:8080/activities/ecc26526e36a42e9aaffb7ce2ea0a9fd
p282
aVhttp://128.32.78.37:8080/activities/1e9086c9393b4804b811d2012bc369f0
p283
aVhttp://128.32.78.37:8080/activities/f68ad53733d54f439fc83041cb603112
p284
aVhttp://128.32.78.37:8080/activities/b4d5f55f788d4da38e3d41dd34ed7173
p285
aVhttp://128.32.78.37:8080/activities/8137cf01ed674f73ad98809c1a908212
p286
aVhttp://128.32.78.37:8080/activities/379f29396ba0478d8007afd2974d839a
p287
aVhttp://128.32.78.37:8080/activities/0f9948fb91c44ea8a983c881d7d07340
p288
aVhttp://128.32.78.37:8080/activities/5fc2dc53a4e043df994211b3e33bb9d4
p289
aVhttp://128.32.78.37:8080/activities/cce9df0a1c8b44318ed8cee0da0f42a3
p290
aVhttp://128.32.78.37:8080/activities/1bd613ce5d7f4ea19708e70f70fc1250
p291
aVhttp://128.32.78.37:8080/activities/a1cbbe337a064b29a86613f33a4c5ad7
p292
aVhttp://128.32.78.37:8080/activities/d8c323eafc8041ad960058b08d63287f
p293
aVhttp://128.32.78.37:8080/activities/d8b99055779a4255921651dc9a4f032b
p294
aVhttp://128.32.78.37:8080/activities/4796243c0168424b86dc9ec8db128996
p295
aVhttp://128.32.78.37:8080/activities/6d611edb743b4ef8a49edc09e2967d72
p296
aVhttp://128.32.78.37:8080/activities/80f2008462714d3ba67499fc44885674
p297
aVhttp://128.32.78.37:8080/activities/20aee8e63f3f4a2ea237e9804553ae60
p298
aVhttp://128.32.78.37:8080/activities/842b12da8e6f4d2abd2087b8a06480f4
p299
aVhttp://128.32.78.37:8080/activities/1288b6bb0ceb460bbfe44477d1122ae2
p300
aVhttp://128.32.78.37:8080/activities/6b728e6aff924d1f897a1e4c839c64f5
p301
aVhttp://128.32.78.37:8080/activities/27563bc73594473cbb79f3d98350740d
p302
aVhttp://128.32.78.37:8080/activities/c3d41535e6954d32b728f8889764080a
p303
aVhttp://128.32.78.37:8080/activities/a366e26f0a614fbfac70f663c5987fb0
p304
aVhttp://128.32.78.37:8080/activities/73732f2cc84e49e1b9d9396acbb951c2
p305
aVhttp://128.32.78.37:8080/activities/4dc80d7a6c11405c8b53d93603a064bf
p306
aVhttp://128.32.78.37:8080/activities/bca06b46a04d48dda9ce13a4b2956483
p307
aVhttp://128.32.78.37:8080/activities/2016953f9832485fa496d4348d139b86
p308
aVhttp://128.32.78.37:8080/activities/beccda11158a49d4bfeefc65bb5dc1e2
p309
aVhttp://128.32.78.37:8080/activities/86f2f947ac5d4206b817519bd9ad1854
p310
aVhttp://128.32.78.37:8080/activities/3728c66fe01b41ffaa0c75a6229d0741
p311
aVhttp://128.32.78.37:8080/activities/cfeefffa728440e39695918bb03d99bd
p312
aVhttp://128.32.78.37:8080/activities/3cb850ed6047465dbf8b14e2496f9d88
p313
aVhttp://128.32.78.37:8080/activities/b0a674d3684544a3b2f624378266272e
p314
aVhttp://128.32.78.37:8080/activities/3c11c17fd17749fe954207991704b560
p315
aVhttp://128.32.78.37:8080/activities/3ce6200a49c54b96991286f190a77425
p316
aVhttp://128.32.78.37:8080/activities/fffa1c675d2848e7b5c7c464ee4d6e44
p317
aVhttp://128.32.78.37:8080/activities/1c276d85c12c40dba14bda23b667f560
p318
aVhttp://128.32.78.37:8080/activities/553f575fd4374bf78ef909fd3a92a647
p319
aVhttp://128.32.78.37:8080/activities/d74d2aa11317469e9629a54a40e9ae1e
p320
aVhttp://128.32.78.37:8080/activities/2cbe4ec8b62b4b29b065fe77e3817572
p321
aVhttp://128.32.78.37:8080/activities/a03923311b3b4684a8c2d510ab4d1e0d
p322
aVhttp://128.32.78.37:8080/activities/bcb335fd8c5a4a5f896aad25dc31dd0d
p323
aVhttp://128.32.78.37:8080/activities/5de1e894548346ef9fe547c340a7bdd4
p324
aVhttp://128.32.78.37:8080/activities/0be88fd68fc44e9887dbd2652de045b6
p325
aVhttp://128.32.78.37:8080/activities/3ebf9c6103f841e4ade15726d596ad7f
p326
aVhttp://128.32.78.37:8080/activities/094f38e05aa9408b97dd01c4edd97be2
p327
aVhttp://128.32.78.37:8080/activities/35beaf7ecd394e16ba11cd15e9dbc5ec
p328
aVhttp://128.32.78.37:8080/activities/ebbaa07648994f5fb6f0f3c733818f2e
p329
aVhttp://128.32.78.37:8080/activities/8027efdda03244fa85079f9f4c02ebb8
p330
aVhttp://128.32.78.37:8080/activities/8f66aac194374938beaf1bf1dca284be
p331
aVhttp://128.32.78.37:8080/activities/9f13612b5b6948a0b6b6171d7f551752
p332
aVhttp://128.32.78.37:8080/activities/96203ca2f02040e1b8babcfa9ca0b0c9
p333
aVhttp://128.32.78.37:8080/activities/72c24d2503424730b41d04b38b038099
p334
aVhttp://128.32.78.37:8080/activities/7725d5a6ba3e4167b04cafaca6a16352
p335
aVhttp://128.32.78.37:8080/activities/11f4986ab1b64cae88490cf823064d2a
p336
aVhttp://128.32.78.37:8080/activities/0dcd84008fbc490aaa276bf34598c992
p337
aVhttp://128.32.78.37:8080/activities/e45c46e5309a4d42a691a1e1658414e1
p338
aVhttp://128.32.78.37:8080/activities/d8eafe2c1b1d44ffbfb557659967a09b
p339
aVhttp://128.32.78.37:8080/activities/45c43c4486a84d58b0f1a109cab57a9c
p340
aVhttp://128.32.78.37:8080/activities/9d25d7e36c67466d9088bc35bc0af121
p341
aVhttp://128.32.78.37:8080/activities/ea0a0c287adb4e99bff3e12cf9b11159
p342
aVhttp://128.32.78.37:8080/activities/1d14898744ef4bb387e43b61e2de86fe
p343
aVhttp://128.32.78.37:8080/activities/e6343e7b30904137b402c43198a4781e
p344
aVhttp://128.32.78.37:8080/activities/15676a9c5ce64d379f1c5d7f7cfeeaf3
p345
aVhttp://128.32.78.37:8080/activities/dd745679049e4a5c86d73db8e0499401
p346
aVhttp://128.32.78.37:8080/activities/07e7a43996f24ca4a453a2933b5f7afc
p347
aVhttp://128.32.78.37:8080/activities/f132b0c406734572881a5d74d38904de
p348
aVhttp://128.32.78.37:8080/activities/f783d5b8539c4347bea8b6ccd5e12c3a
p349
aVhttp://128.32.78.37:8080/activities/530de41293f14dfeb9d41547c5422018
p350
aVhttp://128.32.78.37:8080/activities/9a5b1b2eb1294a61943fbaab89db48fa
p351
aVhttp://128.32.78.37:8080/activities/388246b22e2d47eda1fcf6d2d85ce04d
p352
aVhttp://128.32.78.37:8080/activities/9727af4808984d50b7de68b2249beafc
p353
aVhttp://128.32.78.37:8080/activities/a01a1908b68d44649aa8a825730fb20a
p354
aVhttp://128.32.78.37:8080/activities/857c391900d2449496b78ee922aea2ca
p355
aVhttp://128.32.78.37:8080/activities/6a9f959b02654bc199389cac2b3a485c
p356
aVhttp://128.32.78.37:8080/activities/f972911c21b34d2494c202d1e7fe60b7
p357
aVhttp://128.32.78.37:8080/activities/54c8ac3cb1f642f29583e93e06ca3436
p358
aVhttp://128.32.78.37:8080/activities/833f539520634c6da89fd92484db9ddd
p359
aVhttp://128.32.78.37:8080/activities/24704fcd908545bc90e60c86c983376c
p360
aVhttp://128.32.78.37:8080/activities/57bdffc1eda24703aae1e66bde0b86f2
p361
aVcc4fd652ebae4293b047689efabc9155
p362
aVcca19ccedc854b7f851aa0d208466cad
p363
aV8dc297d81bb9484f84c9706a8472c491
p364
aVc88bda3d132448329ab44924c98bb765
p365
aV480ef36e0ca64cf0afd76d623d8ef009
p366
aVfb252a7d5abe403890778645eb7d7c34
p367
aVbd986f65f8414aba92436028d4472ded
p368
aV424f93b098824ee39b3da31ca1a017a7
p369
aV94e56ee87bdd437eb8ccb1bd00042409
p370
aV5e838029e4304c2c945efe24743be158
p371
aVb1de74527b6448649645ffd1ddc045ef
p372
aV408f8faed3a14e8db2acf3b89dec35ce
p373
aV3687198d00da48b3a420b6b323781029
p374
aV3a04936ad8a34dc39e078cc993cc5ba2
p375
aVhttp://128.32.78.37:8080/activities/bfb6970c7d714c268559dfc78fa9e737
p376
aVhttp://128.32.78.37:8080/activities/ca75a8e7a8bc4318ae161b2a589701bb
p377
aVhttp://128.32.78.37:8080/activities/9c6f5867667e4f17a9db66d9e8725aa4
p378
aVhttp://128.32.78.37:8080/activities/f9ecc4bd1521400db926e9026756fd87
p379
aVhttp://128.32.78.37:8080/activities/446d8d2f13dd45d5b00ac3406dd74ffe
p380
aVhttp://128.32.78.37:8080/activities/7331a246fcd94e4ca3d54d3a17fb1fde
p381
aVhttp://128.32.78.37:8080/activities/a0d7edd6abe0433790ecd5453d297bda
p382
aVhttp://128.32.78.37:8080/activities/0dfd001d765e46d2b4cc46f4ea7b344c
p383
aVhttp://128.32.78.37:8080/activities/2c2ba6bbdb2649b68020d06dd2988b07
p384
aVhttp://128.32.78.37:8080/activities/c87ca12612f64ef18024a6c0b3d69d74
p385
aVhttp://128.32.78.37:8080/activities/0a62502d46c0461b939f11c2a4cdc26b
p386
aVhttp://128.32.78.37:8080/activities/319bc56a471346c481b06d30da7e447e
p387
aVhttp://128.32.78.37:8080/activities/67eedb2c21be41df95bdb15f749ecc3e
p388
aVhttp://128.32.78.37:8080/activities/cda9ec611d0a4ff8bebe3d3e7544c7c6
p389
aVhttp://128.32.78.37:8080/activities/a59b01aee79742bba48bfd22dcdf05bc
p390
aVhttp://128.32.78.37:8080/activities/66bea3a1d6c845cb8e4ead3f2e142dbe
p391
aVhttp://128.32.78.37:8080/activities/2309251f7bde466c86cf6584faf978f5
p392
aVhttp://128.32.78.37:8080/activities/78bda1cc696d46ebaa8388143f1f2885
p393
aVhttp://128.32.78.37:8080/activities/67969e77289948408f90ea4e6820e48b
p394
aVhttp://128.32.78.37:8080/activities/85ebc8b017b347139605a1a1f3bae2e7
p395
aVhttp://128.32.78.37:8080/activities/f64b983d23af4a8180dab8529bb6c10f
p396
aVhttp://128.32.78.37:8080/activities/257dd83334864a3584feb2dc64e4f874
p397
aVhttp://128.32.78.37:8080/activities/62d2a3e570bb4166bc55a91b9c3af622
p398
aVhttp://128.32.78.37:8080/activities/503be51b64124e83a30a576a013ca743
p399
aVhttp://128.32.78.37:8080/activities/6e7e46c11d2c41c883573644f16761a8
p400
aVhttp://128.32.78.37:8080/activities/a703a4a8146d45ec987e21d49cf24c7e
p401
aVhttp://128.32.78.37:8080/activities/e95e1dfca5524f8b99f442d5d6d9753c
p402
aVhttp://128.32.78.37:8080/activities/f1315d09d4b24d10b9f249d8e2ab1319
p403
aVhttp://128.32.78.37:8080/activities/7c57f3336ec24497a336232471e4652d
p404
aVhttp://128.32.78.37:8080/activities/5bd2629b3215403686ce07655de46a5d
p405
aVhttp://128.32.78.37:8080/activities/7c6a5955f6eb471187c091d4ec61b7cc
p406
aVhttp://128.32.78.37:8080/activities/fb84f3b434e041f7861cc79890f8df27
p407
aVhttp://128.32.78.37:8080/activities/ba443bd7c7654acaa91b5f187e6e1dcc
p408
aVhttp://128.32.78.37:8080/activities/751640c6888443eab68506a5c06bc231
p409
aVhttp://128.32.78.37:8080/activities/d0afdb70ca5b49df9902979fe0560c42
p410
aVhttp://128.32.78.37:8080/activities/0983d33746744a59bb43583e06c38503
p411
aVhttp://128.32.78.37:8080/activities/a1ac48438ddd4a06a74063c56695d60e
p412
aVhttp://128.32.78.37:8080/activities/de0bb6de64754961b46d12cdb5f257f3
p413
aVhttp://128.32.78.37:8080/activities/9533fce494de44d5b49d3d2f215d9153
p414
aVhttp://128.32.78.37:8080/activities/6adb5a80863a44579e8ba9111a69ab47
p415
aVhttp://128.32.78.37:8080/activities/49da0bf02867465497dfcf2b77058cf5
p416
aVhttp://128.32.78.37:8080/activities/bc47de3a732f4de0b4e7da0e588354d2
p417
aVhttp://128.32.78.37:8080/activities/713709c2c77c4b69b3bbb144bc28bccc
p418
aVhttp://128.32.78.37:8080/activities/af68b3a946e04d789c9174679f52a5b9
p419
aVhttp://128.32.78.37:8080/activities/0d2ee0764913470fad4bdca6c5d83399
p420
aVhttp://128.32.78.37:8080/activities/b6f65def842744c38d04a1ebbfe7dec2
p421
aVhttp://128.32.78.37:8080/activities/d2b707381bbf4779a10652278ef29ab5
p422
aVhttp://128.32.78.37:8080/activities/3da8ee54c124434aabaf51e9700b2e09
p423
aVhttp://128.32.78.37:8080/activities/5f6f57d14d6d4d6686788cb6e2803dce
p424
aVhttp://128.32.78.37:8080/activities/5b15a84d08bc445aa39c8b98db8d0f1a
p425
aVhttp://128.32.78.37:8080/activities/bee96568c0114a1189617af49ca3cced
p426
aVhttp://128.32.78.37:8080/activities/06d912a425904189a08e7c58a2f97503
p427
aVhttp://128.32.78.37:8080/activities/e1df64666824495b87a1faf94647b4ba
p428
aVhttp://128.32.78.37:8080/activities/941de8289bdc4991841f123aba4dc3c7
p429
aVhttp://128.32.78.37:8080/activities/d8def0ab56b34c2ab8ca4adc4f1f6ea7
p430
aVhttp://128.32.78.37:8080/activities/984bb5ca134242568b8d9f0472b91d5c
p431
aVhttp://128.32.78.37:8080/activities/900ce1efd02943a2b6766a8859e58788
p432
aVhttp://128.32.78.37:8080/activities/8f5d4d7399374f8ea859975ae033f4c1
p433
aVhttp://128.32.78.37:8080/activities/07f345fe392f49349322fe16294e6519
p434
aVhttp://128.32.78.37:8080/activities/c9e1431ad3244415be11056b0542a065
p435
aVhttp://128.32.78.37:8080/activities/71a43564a2c04affb368bb55f5998228
p436
aVhttp://128.32.78.37:8080/activities/d356f5c184ac417cb4fe197c5e1076ec
p437
aVhttp://128.32.78.37:8080/activities/fbcbd250182341e68125a7208d6e203c
p438
aVhttp://128.32.78.37:8080/activities/011c896a0c6d4acb9f72acea0d53378a
p439
aVhttp://128.32.78.37:8080/activities/782683722bdd46c1bb0beb9a0313ba0d
p440
aVhttp://128.32.78.37:8080/activities/fefd022d3738460bbcdd033dfe728cef
p441
aVhttp://128.32.78.37:8080/activities/e93908b1d32e4412aebb4aaa3ffc2b05
p442
aVhttp://128.32.78.37:8080/activities/39dd03130f8640dbaea6851b34d037bf
p443
aVhttp://128.32.78.37:8080/activities/4e7f9899f4ac4559a939cd1277c6516b
p444
aVhttp://128.32.78.37:8080/activities/90c377dd2e774ca597126dcafda7f649
p445
aVhttp://128.32.78.37:8080/activities/a6545cd6acee4a0abd8e9b2dba07d968
p446
aVhttp://128.32.78.37:8080/activities/5935e163d5b542ef97acd597baf9fdcc
p447
aVhttp://128.32.78.37:8080/activities/78f9fdbbf2294764864827154690c796
p448
aVhttp://128.32.78.37:8080/activities/e6e5f8e63edd4e478f0b7cad38df365b
p449
aVhttp://128.32.78.37:8080/activities/8a7d8fdac782473daf50f7deb1c133e8
p450
aVhttp://128.32.78.37:8080/activities/0fc9eedd2316498797bcc1f4290f2d26
p451
aVhttp://128.32.78.37:8080/activities/b8709ca853b14a91b21a5640b1b99f94
p452
aVhttp://128.32.78.37:8080/activities/1422ed20da99484cb01eac0caf9d779f
p453
aVhttp://128.32.78.37:8080/activities/a68f03b8b3354251bf46e36b17d4607e
p454
aVhttp://128.32.78.37:8080/activities/ef1bf98489fe4762b1df860594239df2
p455
aVhttp://128.32.78.37:8080/activities/a96de92c921241fb8bbadc325a5b8da2
p456
aVhttp://128.32.78.37:8080/activities/f88b12f7d6744996ad39f9a89c6498a6
p457
aVhttp://128.32.78.37:8080/activities/da0836dd253640f6a2763a6359a5066b
p458
aVhttp://128.32.78.37:8080/activities/b3fcddefe8d34d37adaca9ad424f4024
p459
aVhttp://128.32.78.37:8080/activities/1c35a6729a65478aaa81e4b4ee2a9673
p460
aVhttp://128.32.78.37:8080/activities/98f802559dba4e70a481baef80d4860c
p461
aVhttp://128.32.78.37:8080/activities/6cf2ec10d7a7462b88988598b566de09
p462
aVhttp://128.32.78.37:8080/activities/80d1c199bbcd4c7c837a50b65ca7dc3d
p463
aVhttp://128.32.78.37:8080/activities/e0d3fada1ec74a9bb83778d5a358879e
p464
aVhttp://128.32.78.37:8080/activities/9b52dc8a28ed443fa1a3f472ba473152
p465
aVhttp://128.32.78.37:8080/activities/2189ab9be95f40fb89a4c23b8321e97b
p466
aVhttp://128.32.78.37:8080/activities/7e2c287cd5e543e68dcc347662c7ed6e
p467
aVhttp://128.32.78.37:8080/activities/0f1de5bf64fe4893b04d50b1be27b151
p468
aVhttp://128.32.78.37:8080/activities/8fbfd32fc5104011bb88b2daeb54b705
p469
aVhttp://128.32.78.37:8080/activities/6dbb9c424b9b4d35b432ff2005e50dd3
p470
aVhttp://128.32.78.37:8080/activities/5cc2a426f30d410e8bd8280182059bc2
p471
aVhttp://128.32.78.37:8080/activities/e366235ccd3841c4b1f9e06256415283
p472
aVhttp://128.32.78.37:8080/activities/f11cac75e4b745bb9b2f7975e0354265
p473
aVhttp://128.32.78.37:8080/activities/291e4887c3ba4291a51daf4483e603c7
p474
aVhttp://128.32.78.37:8080/activities/b1121f0a228b44a98f8c09ef51036b00
p475
aVhttp://128.32.78.37:8080/activities/afd9eb71c11b442eb4b278c2c6c77368
p476
aVhttp://128.32.78.37:8080/activities/84646f11283a4effb1eb417f0de0fec0
p477
aVhttp://128.32.78.37:8080/activities/1b0f979768f249f48f89bcc000661c6d
p478
aVhttp://128.32.78.37:8080/activities/dcd101a74a43471991bc29a31ce179ac
p479
aVhttp://128.32.78.37:8080/activities/e949aaff40af495197d392a5fb049c3c
p480
aVhttp://128.32.78.37:8080/activities/d3ff062b5d54443aa01e996089511950
p481
aVhttp://128.32.78.37:8080/activities/d730241a24454263a2a6200e2cf02625
p482
aVhttp://128.32.78.37:8080/activities/ef4385e716294a93ac952a7cf984f30f
p483
aVhttp://128.32.78.37:8080/activities/8f6eaf73de0c41fa91286a853230a650
p484
aVhttp://128.32.78.37:8080/activities/0c92a5a1b89840c8a176710622b499fc
p485
aVhttp://128.32.78.37:8080/activities/f7c8f3d374b94b259758da65db7732fb
p486
aVhttp://128.32.78.37:8080/activities/33716767869242faa50846cdd9ca7d46
p487
aVhttp://128.32.78.37:8080/activities/cea8dc5102ae4ccc9ae607000e99d3c4
p488
aVhttp://128.32.78.37:8080/activities/1cd808588193422f8eba74f3cb624eeb
p489
aVhttp://128.32.78.37:8080/activities/ffbd7929f84f416ca41b1508c7e9474c
p490
aVhttp://128.32.78.37:8080/activities/44e81c0a39304617956ed11d4fae1617
p491
aVhttp://128.32.78.37:8080/activities/b9d3afff9c964c09a55f387c94c96403
p492
aVhttp://128.32.78.37:8080/activities/9a68d81efebc4647ab1c576e9bde64f0
p493
aVhttp://128.32.78.37:8080/activities/974edcf3ea074db38d3b8621a2000251
p494
aVhttp://128.32.78.37:8080/activities/64c0daf6d54741339035430d67da5efc
p495
aVhttp://128.32.78.37:8080/activities/5c46826f2d364f2d8101483bd9417487
p496
aVhttp://128.32.78.37:8080/activities/ca50db39b4bb4f308528e6107f31aaa3
p497
aVhttp://128.32.78.37:8080/activities/7a6aeb80f1c34dc49373e384c1d7e20e
p498
aVhttp://128.32.78.37:8080/activities/4add70d6e1a54bcf8112d6b2867637a3
p499
aVhttp://128.32.78.37:8080/activities/1d3fd62279b74de4a07000bbdff55673
p500
aVhttp://128.32.78.37:8080/activities/844177d98b0f4f8fbedcd4a82a2388d0
p501
aVhttp://128.32.78.37:8080/activities/17d78b131cc24b9694e34424749b68b6
p502
aVhttp://128.32.78.37:8080/activities/290474d74d3f44e2bf6a8cf0e83ee05c
p503
aVhttp://128.32.78.37:8080/activities/8d175b444c26491d8438d29fb995edfe
p504
aVhttp://128.32.78.37:8080/activities/15f78af7994b46b7a4e1e051612789ad
p505
aVhttp://128.32.78.37:8080/activities/1094e17fe6f148ce8eba468d360e2d54
p506
aVhttp://128.32.78.37:8080/activities/62482517569b42d4bf614d92b9f05b97
p507
aVhttp://128.32.78.37:8080/activities/1384593ba3304142a631724480dc4cc8
p508
aVhttp://128.32.78.37:8080/activities/1b87b60bc62d43d081c70a9a0436d494
p509
aVhttp://128.32.78.37:8080/activities/674ad38e3d2b4f7cae57720a5f101ecb
p510
aVhttp://128.32.78.37:8080/activities/d1113ff2434e443a81d35fb2aeb5e551
p511
aVhttp://128.32.78.37:8080/activities/3e33c65d874f494fac0d940cd730ad01
p512
aVhttp://128.32.78.37:8080/activities/e576ac63816f4860843aeeff70b8763e
p513
aVhttp://128.32.78.37:8080/activities/4b7384994da7409a8d78f90f60469b61
p514
aVhttp://128.32.78.37:8080/activities/420ec660dbe54c49bbe5dcb839c7e813
p515
aVhttp://128.32.78.37:8080/activities/62ba850f2b8143b5a69466e18d4b0d97
p516
aVhttp://128.32.78.37:8080/activities/f0eb37c5f828403ab03cd9d645cca2b6
p517
aVhttp://128.32.78.37:8080/activities/fcb240100ba24a2ab5ba777ed1fa2e62
p518
aVhttp://128.32.78.37:8080/activities/81fdfcefe9104dd39cdcc9e41ef37eae
p519
aVhttp://128.32.78.37:8080/activities/75208a0116de4ad2847714908206b213
p520
aVhttp://128.32.78.37:8080/activities/c0ed9c62f1294d1d96d8dc2f984f55cd
p521
aVhttp://128.32.78.37:8080/activities/ebfbe7ebb57d4ef5a3f3476f1f468f12
p522
aVhttp://128.32.78.37:8080/activities/d320aa64a7844a6bbb97f8c4ec2b0bf9
p523
aVhttp://128.32.78.37:8080/activities/1b0cb310c7ca4e23a60303b8068cb31e
p524
aVhttp://128.32.78.37:8080/activities/362b53050f1146fc882b93e29a63d8fe
p525
aVhttp://128.32.78.37:8080/activities/164afbb7d3a64d05b6750cf414faed80
p526
aVhttp://128.32.78.37:8080/activities/eb384e8ab3724f6eb5581551a3cfebc4
p527
aVhttp://128.32.78.37:8080/activities/e5393a10f53e4ea6945257e6ed115ea1
p528
aVhttp://128.32.78.37:8080/activities/4c97b19a9ede4747b2ca5df5651d21be
p529
aVhttp://128.32.78.37:8080/activities/9d39c8c194444c12b8d20f0dda710797
p530
aVhttp://128.32.78.37:8080/activities/adc7251e9f9944478bc06a8151ab335f
p531
aVhttp://128.32.78.37:8080/activities/50e66812e19e456db32667669415d93e
p532
aVhttp://128.32.78.37:8080/activities/8b0a4875157b485c9e38b50fa16456df
p533
aVhttp://128.32.78.37:8080/activities/9dc6e81c5e404386a411996d6e27686b
p534
aVhttp://128.32.78.37:8080/activities/63bcbc94b0b04d7b9cb60e9259e914bf
p535
aVhttp://128.32.78.37:8080/activities/fea4ba02a6524ce4b485b2270fbe9f63
p536
aVhttp://128.32.78.37:8080/activities/42b38727a0c1438ba7076776389468e4
p537
aVhttp://128.32.78.37:8080/activities/8576fd3b2c8744a289726f863cda99e9
p538
aVhttp://128.32.78.37:8080/activities/193c5cc36d80410786b5dcf37616cf8a
p539
aVhttp://128.32.78.37:8080/activities/e3add1858ebc4b3e93475a6b206a4ffd
p540
aVhttp://128.32.78.37:8080/activities/815eadd83960475da508b22f2aeae4e9
p541
aVhttp://128.32.78.37:8080/activities/dba8aa79260e458fb046f7d6a9b0c959
p542
aVhttp://128.32.78.37:8080/activities/60649d6a12e749cab3f2ac24afab8f5a
p543
aVhttp://128.32.78.37:8080/activities/bd43c03d175c4231aa0f720accf3c652
p544
aVhttp://128.32.78.37:8080/activities/2056bcd951ea40b7a1a69161d5037601
p545
aVhttp://128.32.78.37:8080/activities/b6db7659ec504188859a8219b8dc063b
p546
aVhttp://128.32.78.37:8080/activities/19c6c0aa73094e289a7997be5f0a1202
p547
aVhttp://128.32.78.37:8080/activities/120358dc13fa44589fa9bd2c878bb66a
p548
aVhttp://128.32.78.37:8080/activities/e73d3715e0634e29b879560f70b49539
p549
aVhttp://128.32.78.37:8080/activities/c2e719d072bd491586f3220e97e89498
p550
aVhttp://128.32.78.37:8080/activities/4414777ac0fa4e75b2c23509bdbc3705
p551
aVhttp://128.32.78.37:8080/activities/d1545edc5ed14b01b8a6a640d047ab4e
p552
aVhttp://128.32.78.37:8080/activities/564b43f22e4a4c29ae347a0f26377022
p553
aVhttp://128.32.78.37:8080/activities/3ef5a9ff27744ba6b792dacb08d111b8
p554
aVhttp://128.32.78.37:8080/activities/da0a5b57cf114413b0c94f9a15ff9491
p555
aVhttp://128.32.78.37:8080/activities/383b87d68de2491a8596ad5ca3b191c8
p556
aVhttp://128.32.78.37:8080/activities/1cc6fd942f704b3e9c3ce05a682dec53
p557
aVhttp://128.32.78.37:8080/activities/a0cae6ce688f4ca89d844119a6a934a1
p558
aVhttp://128.32.78.37:8080/activities/5d32e03303a449dca86e57f47c3d8b96
p559
aVhttp://128.32.78.37:8080/activities/d625f225fa8b400486969af0a102162f
p560
aVhttp://128.32.78.37:8080/activities/ca8ad500e9554a518068579b26dfc8fc
p561
aVhttp://128.32.78.37:8080/activities/99ba28fe87d5429e94d9320416cc8e93
p562
aVhttp://128.32.78.37:8080/activities/c82290a946d5441fbc5ef63b256d84ed
p563
aVhttp://128.32.78.37:8080/activities/7c7c92700c9a40f283c86d46266b461d
p564
aVhttp://128.32.78.37:8080/activities/406833c7a897469889303273e8f3d800
p565
aVhttp://128.32.78.37:8080/activities/70f8071c48af49b3b23a529ec63ded8b
p566
aVhttp://128.32.78.37:8080/activities/6dc35d9b07fe4f83af77be6b53f3f170
p567
aVhttp://128.32.78.37:8080/activities/6970b38dccab49d1b4ea289423a0fed5
p568
aVhttp://128.32.78.37:8080/activities/b58d07f338284433b616211c2c25f7dd
p569
aVhttp://128.32.78.37:8080/activities/382006587176400ea5241070c3628de1
p570
aVhttp://128.32.78.37:8080/activities/d845801cd772492688bbb713d91dd712
p571
aVhttp://128.32.78.37:8080/activities/e7ee1ed0d3b44d54964e89192fc4a8bf
p572
aVhttp://128.32.78.37:8080/activities/1d313caac24d4f92b7cfcd8dc905256a
p573
aVhttp://128.32.78.37:8080/activities/8528e557ff5c4d7ebac04a429d04666e
p574
aVhttp://128.32.78.37:8080/activities/2bdb25fc9e62420eb52fc71aab6c0be2
p575
aVhttp://128.32.78.37:8080/activities/82dabbf5156e46cbbad47475c7d6a2d8
p576
aVhttp://128.32.78.37:8080/activities/177319f347e04643bec30c1f53c5479d
p577
aVhttp://128.32.78.37:8080/activities/61680be5d52d46c7888ca377469bfb4e
p578
aVhttp://128.32.78.37:8080/activities/9a71d553751c424f920a90c8f0944c82
p579
aVhttp://128.32.78.37:8080/activities/1e688180d1ab4ce08babb746a75544d0
p580
aVhttp://128.32.78.37:8080/activities/510a82b9e96346d79cd46cbb864e1cea
p581
aVhttp://128.32.78.37:8080/activities/080a5428cd5e45b78ee87bce3aa576ba
p582
aVhttp://128.32.78.37:8080/activities/03a2a141c89b4c69b004c47ae958eaff
p583
aVhttp://128.32.78.37:8080/activities/69d197599e6b43e5a4662c6ae1eae0a8
p584
aVhttp://128.32.78.37:8080/activities/0a8ce723901b403490faf7bfaa575291
p585
aVhttp://128.32.78.37:8080/activities/f2c5ae304fe94e698c04bdb16ef51099
p586
aVhttp://128.32.78.37:8080/activities/b3f4a8773e9c4561bc2f96807cada1dd
p587
aVhttp://128.32.78.37:8080/activities/9ff590b8170143edb9ea1fcd7aa8db91
p588
aVhttp://128.32.78.37:8080/activities/43a0d9fd4fbd4348a91c31703aaad1da
p589
aVhttp://128.32.78.37:8080/activities/e5d2db04c2c24b51b16331e89c1c3058
p590
aVhttp://128.32.78.37:8080/activities/77b0ada1ec0941a9bdd4965762a214d6
p591
aVhttp://128.32.78.37:8080/activities/a90352020b4349feb9d931de92416bac
p592
a.