(lp1
Vhttp://128.32.78.37:8080/activities/86b6c01e7e714eebb3c4fc2f26cfd8c8
p2
aVhttp://128.32.78.37:8080/activities/d69aea1608a14acf8f3674c42b6826f4
p3
aVhttp://128.32.78.37:8080/activities/d818777d908b4666b3d2a5928828eca7
p4
aVhttp://128.32.78.37:8080/activities/848548c9822a4b88b5c75942538bd67d
p5
aVhttp://128.32.78.37:8080/activities/3e7157c7c4184762a2dc3080d1696bdc
p6
aVhttp://128.32.78.37:8080/activities/14b35886583447ec98c0fe99d58d095b
p7
aVhttp://128.32.78.37:8080/activities/2ad1440d358f41f8ac7590088b071b95
p8
aVhttp://128.32.78.37:8080/activities/b4cedcf86ef947ca9573e7a07e8cf5ec
p9
aVhttp://128.32.78.37:8080/activities/78c3d3d428304f86890cdf75aae95e2d
p10
aVhttp://128.32.78.37:8080/activities/c47a2837a72940aead63d2c7004d789f
p11
aVhttp://128.32.78.37:8080/activities/f68da64833944c2e8190d6cbe77154cb
p12
aVhttp://128.32.78.37:8080/activities/50dc86829864435bb2158bf9388454c7
p13
aVhttp://128.32.78.37:8080/activities/d1596e2cd94f42de9a3f022bc978f1bf
p14
aVhttp://128.32.78.37:8080/activities/8157c0f197f94f2e9d43ac7ddaa3bdf0
p15
aVhttp://128.32.78.37:8080/activities/8c4184d307d242e8a0caa6c09b9fae68
p16
aVhttp://128.32.78.37:8080/activities/4df2b69e46f442bd85a20926706b3ac3
p17
aVhttp://128.32.78.37:8080/activities/085d8e689a414f299fe3e42a89555ae4
p18
aVhttp://128.32.78.37:8080/activities/03d11eb4b423415a8902d3de5fb2d7c6
p19
aVhttp://128.32.78.37:8080/activities/86731c1d68794184ab5008c3c2bbe6fd
p20
aVhttp://128.32.78.37:8080/activities/1fe1094c337547b8b2214d5594384d17
p21
aVhttp://128.32.78.37:8080/activities/8ba955ff1567463e9713becca358836b
p22
aVhttp://128.32.78.37:8080/activities/2382c1bc160145e599cec26fa50b7beb
p23
aVhttp://128.32.78.37:8080/activities/893daf6ea95e4a4b8d5bead89e8f8472
p24
aVhttp://128.32.78.37:8080/activities/46331058d70a4f2aabad982b0f40a8b6
p25
aVhttp://128.32.78.37:8080/activities/2d3714971e064f60abfe0c9ca7547bb0
p26
aVhttp://128.32.78.37:8080/activities/db208695ecba480ca0e1b2da8ce85cd1
p27
aVhttp://128.32.78.37:8080/activities/9f43202efe6c40aca9d3fb14f8aa3866
p28
aVhttp://128.32.78.37:8080/activities/fb4f96777cb0423e864c19eae5027d3d
p29
aVhttp://128.32.78.37:8080/activities/545bec0cb33742eaa4a4f5e1817e636e
p30
aVhttp://128.32.78.37:8080/activities/1da31b86973d486ea599baa8a27091cb
p31
aVhttp://128.32.78.37:8080/activities/ae464c77c3404bb28e09ef75660989a3
p32
aVhttp://128.32.78.37:8080/activities/cdc17ee032644b67b5005e9839a16747
p33
aVhttp://128.32.78.37:8080/activities/4c87d64e5f7b4d0baa9c6ae26aefcac1
p34
aVhttp://128.32.78.37:8080/activities/4762d861e75449ccbaba0fb17896cd3f
p35
aVhttp://128.32.78.37:8080/activities/0051d043641c4c109c8c56455ab82ae8
p36
aVhttp://128.32.78.37:8080/activities/d70265bca11040499772a8ff9ec572cf
p37
aVhttp://128.32.78.37:8080/activities/cd96ab6f774b459e94e91a80e26a50ae
p38
aVhttp://128.32.78.37:8080/activities/2ffd1aab6ed24e3ab3743fff9a0d74d0
p39
aVhttp://128.32.78.37:8080/activities/16c81640d1034f498d16adf6214fb6f7
p40
aVhttp://128.32.78.37:8080/activities/4cf6573ef281438ea39bdf53e0f78cee
p41
aVhttp://128.32.78.37:8080/activities/4236ff89028446279198bd833792320e
p42
aVhttp://128.32.78.37:8080/activities/2a5475a9cfe644458c78b9780908f14a
p43
aVhttp://128.32.78.37:8080/activities/347440e6afbb4d0ab4b7ed0883ea18ca
p44
aVhttp://128.32.78.37:8080/activities/524ce53b8d5b4d6b852d07f7202420f7
p45
aVhttp://128.32.78.37:8080/activities/7dd12f569c314bceab18853209f3376b
p46
aVhttp://128.32.78.37:8080/activities/107e18d168ff4c0f9dd043e4446e5350
p47
aVhttp://128.32.78.37:8080/activities/a1a279c2067c4426b12cfbec544439e6
p48
aVchairID
p49
aVhttp://128.32.78.37:8080/activities/9cb4b33c8fb04992b9ba9f41ef0681ab
p50
aVhttp://128.32.78.37:8080/activities/ddf2352aa3f14c6687ab787297a09cac
p51
aVhttp://128.32.78.37:8080/activities/9aa67b4b22974470a0ecc6455dc982ed
p52
aVhttp://128.32.78.37:8080/activities/b696d591545d4dbea941b68c62006662
p53
aVhttp://128.32.78.37:8080/activities/7a985df8e8a74b93ae641d516d2c797a
p54
aVhttp://128.32.78.37:8080/activities/41f405d41b0649beb2666d90c0acaf00
p55
aVhttp://128.32.78.37:8080/activities/05f3beed774f4b138e69efa8e7d404ff
p56
aVhttp://128.32.78.37:8080/activities/67cf005924494d0ca067b6349f9a294a
p57
aVhttp://128.32.78.37:8080/activities/0c3afebaeda448b3a5a76b2cb90feab8
p58
aVhttp://128.32.78.37:8080/activities/aa75e6e3ed1c483683ae75e4f7dccc9b
p59
aVhttp://128.32.78.37:8080/activities/e1403bccc59643b998c7bb91ae41c2ec
p60
aVhttp://128.32.78.37:8080/activities/7cf0cea854b84237870ea2b910c9c679
p61
aVhttp://128.32.78.37:8080/activities/67c4e086cefe424c966fad7b6836e193
p62
aVhttp://128.32.78.37:8080/activities/4c52eb33de594e6aa39a10c6f7f62139
p63
aVhttp://128.32.78.37:8080/activities/63a91c495fac426cbda1b3f1b176504a
p64
aVhttp://128.32.78.37:8080/activities/5c48f2ab79294f74a6eb6d9c20ac2c8e
p65
aVhttp://128.32.78.37:8080/activities/d0ab627a6e05492aa253a4ff67e6f926
p66
aVhttp://128.32.78.37:8080/activities/bee3b54b6a77443a82e51e1852f6dd3d
p67
aVhttp://128.32.78.37:8080/activities/bc9cfac987194aa692cb26be58286fef
p68
aVhttp://128.32.78.37:8080/activities/1321fd32eee84ceb940f3fa35bed32b7
p69
aVhttp://128.32.78.37:8080/activities/9b7e90e54df047169c61a9cc56b3c946
p70
aVhttp://128.32.78.37:8080/activities/686efcebc87a4c3cabc3f8109a9b8d85
p71
aVhttp://128.32.78.37:8080/activities/88a1051a6fbc4983ba911ea6e845d9c3
p72
aVhttp://128.32.78.37:8080/activities/dcecfb41010e4ee984a6c74cb794dbd3
p73
aVhttp://128.32.78.37:8080/activities/43ed1d2a21b64d39ae7becd6d8685ea8
p74
aVhttp://128.32.78.37:8080/activities/884f3355c1194199b74f6a59fb107ca7
p75
aVhttp://128.32.78.37:8080/activities/6d628c06ea354116b24e781c034bf9ce
p76
aVhttp://128.32.78.37:8080/activities/3efdf23ce7b841ec9f5707201804efe6
p77
aVhttp://128.32.78.37:8080/activities/7bf8a167d7954ab69e399662685ca7d9
p78
aVhttp://128.32.78.37:8080/activities/f1edda75917b419fa48629340b15e820
p79
aVhttp://128.32.78.37:8080/activities/ae041d512c4c4a9bbce99e81099224c6
p80
aVhttp://128.32.78.37:8080/activities/abc04fa29eed4dffa6ecf43780abada3
p81
aVhttp://128.32.78.37:8080/activities/8172e7f83c4d410fa55803aef194bf8e
p82
aVhttp://128.32.78.37:8080/activities/e17178875cbc43ea8a6ac1ec71b57fc5
p83
aVhttp://128.32.78.37:8080/activities/4c7d8140f1eb44149dca6b5e62fe70e5
p84
aVhttp://128.32.78.37:8080/activities/9f53d49765f74b3fa6f9c38c8a445fe5
p85
aVhttp://128.32.78.37:8080/activities/3433ac623657405a8920aec41ba0861e
p86
aVhttp://128.32.78.37:8080/activities/a2458e5a88d745c08bef07161189cd80
p87
aVhttp://128.32.78.37:8080/activities/88af0408f076428fb6f56e85985893ff
p88
aVhttp://128.32.78.37:8080/activities/d7abfc6f0698421e9d5fd2e71ecd966d
p89
aVhttp://128.32.78.37:8080/activities/bcf36c8161c748c09202f988e0ddcf93
p90
aVhttp://128.32.78.37:8080/activities/f3c217bbdedf48dfb0afef116a6f6cb9
p91
aVhttp://128.32.78.37:8080/activities/32c370c2c868443ca1a1456ea18868af
p92
aVhttp://128.32.78.37:8080/activities/d78d5a6535c74e1ba9427928c779c152
p93
aVhttp://128.32.78.37:8080/activities/58c63e67d3bf427cad8e47834ad724c6
p94
aVhttp://128.32.78.37:8080/activities/6289fddc03244b71999176cbac631a68
p95
aVhttp://128.32.78.37:8080/activities/2bcf8b334fd64487929ba941ef8986dc
p96
aVhttp://128.32.78.37:8080/activities/c627ec8618f141b88897ac027d429181
p97
aVhttp://128.32.78.37:8080/activities/0314791b020a4600b49c614364e6df1a
p98
aVhttp://128.32.78.37:8080/activities/9fd149a7ee7745989836116d5506c2f0
p99
aVhttp://128.32.78.37:8080/activities/636df35102394d6c8cd76f85b9fa9c8b
p100
aVhttp://128.32.78.37:8080/activities/129d320b9d324ac0a8b77794cd7aaaf6
p101
aVhttp://128.32.78.37:8080/activities/3748a5dd83aa491bae0eb803d11c8f8f
p102
aVhttp://128.32.78.37:8080/activities/b2fb6f74b038409d8c5458ab2784e9b2
p103
aVhttp://128.32.78.37:8080/activities/db9ad851b48741b2bce8fa374bec235d
p104
aVhttp://128.32.78.37:8080/activities/736e58620c6f445ab8331d58b33a4528
p105
aVhttp://128.32.78.37:8080/activities/1370b91665cb42e690ee1049f07cb670
p106
aVhttp://128.32.78.37:8080/activities/de6cc21bc7404ae8977d7bb257d990f4
p107
aVhttp://128.32.78.37:8080/activities/e379a329756345208d6d34a27bc4bc61
p108
aVhttp://128.32.78.37:8080/activities/bd1837208fbe4aa9b4ab619c45565888
p109
aVhttp://128.32.78.37:8080/activities/19a1a897770e4f58bb9fe0d607ae7dff
p110
aVhttp://128.32.78.37:8080/activities/c1dc6dcb45954d808c01698c6a2bb258
p111
aVhttp://128.32.78.37:8080/activities/05f132d489f64f6888a4099cd42c1328
p112
aVhttp://128.32.78.37:8080/activities/d2abeac2fdb24df79e7ecd280055f802
p113
aVhttp://128.32.78.37:8080/activities/fd8897f2485f4386ad2aa3344067f4c1
p114
aVhttp://128.32.78.37:8080/activities/4b2e5f18266f4b1fa3c3767d9ea4fd19
p115
aVhttp://128.32.78.37:8080/activities/9d64842a632f4c2db6191d8707734b9b
p116
aVhttp://128.32.78.37:8080/activities/e007d66394504e2a8b84d1f746c4479d
p117
aVhttp://128.32.78.37:8080/activities/feb0ca62eeff40989d360c4c4eb45ecf
p118
aVhttp://128.32.78.37:8080/activities/4e5e55d8c4e94a84a055ca3cf6127c77
p119
aVhttp://128.32.78.37:8080/activities/6e8b2daa48e6411ab26ecfbd0802d269
p120
aVhttp://128.32.78.37:8080/activities/20b9731520984e9c9863f16d11c35ca9
p121
aVhttp://128.32.78.37:8080/activities/ef97ec8bb12641b2829560b6c9059e96
p122
aVhttp://128.32.78.37:8080/activities/97b2a84a86fa40d19bf1f2cc0b318ea1
p123
aVhttp://128.32.78.37:8080/activities/a89403bbdbbb458887a496d73d31a301
p124
aVhttp://128.32.78.37:8080/activities/7133b45c614c42588cbc3ceb1e3f3747
p125
aVhttp://128.32.78.37:8080/activities/d93eccc7ecae4dc1912780fdc7651e4d
p126
aVhttp://128.32.78.37:8080/activities/ba4e469736be44b19c153d11e1f0c189
p127
aVhttp://128.32.78.37:8080/activities/946f09ee7f6949c2b47b1a6875ada784
p128
aVhttp://128.32.78.37:8080/activities/17e6333e9c8143aca87b26c8334f642f
p129
aVhttp://128.32.78.37:8080/activities/9701ced304d74a6480b94684dc220e53
p130
aVhttp://128.32.78.37:8080/activities/eef808894ace4e868439660e6586e113
p131
aVhttp://128.32.78.37:8080/activities/d4ef1e9e660c4d349dc9ea0e5b8d987a
p132
aVhttp://128.32.78.37:8080/activities/78a9553c0bf14f41a770770b1a18a8e7
p133
aVhttp://128.32.78.37:8080/activities/ce581b9120244d6a9470a22a61dc3f81
p134
aVhttp://128.32.78.37:8080/activities/08ec64015f02449fb14bd5aa8a2c3f30
p135
aVhttp://128.32.78.37:8080/activities/7ffc482e156146cb93ec9775a17ea6d2
p136
aVhttp://128.32.78.37:8080/activities/1f9eb4ff19574a72a928fa658da45708
p137
aVhttp://128.32.78.37:8080/activities/3c84e9d27b794ab19030a1d34771cdec
p138
aVhttp://128.32.78.37:8080/activities/8e92f68820ae4c29ae5b7e6047531d33
p139
aVhttp://128.32.78.37:8080/activities/aa20c7a804c144a1a87c538460b37cfd
p140
aVhttp://128.32.78.37:8080/activities/e87ae52caa714028978880e3fdcc9915
p141
aVhttp://128.32.78.37:8080/activities/37511cbfd43842058d30f8b8d3b68dd0
p142
aVhttp://128.32.78.37:8080/activities/2af20ea91bb64bb58e3daec76d485f43
p143
aVhttp://128.32.78.37:8080/activities/a90f8b5832c046d69c8236a7799a1172
p144
aVhttp://128.32.78.37:8080/activities/b6ad75fd087449fdb93da13722b0fde2
p145
aVhttp://128.32.78.37:8080/activities/d66d7011532b44f198bb4e6fe40fb7f3
p146
aVhttp://128.32.78.37:8080/activities/0712a043019345d09181c2ef3aa8b815
p147
aVhttp://128.32.78.37:8080/activities/e6d680bbf8c340c8bd598303e5e1712d
p148
aVhttp://128.32.78.37:8080/activities/f55ba9ce832b4d3698aa53cb1a46aabf
p149
aVhttp://128.32.78.37:8080/activities/2e362195908c4f3989c369cd12e36a1f
p150
aVhttp://128.32.78.37:8080/activities/6d7861920eb74ae2ad745b60265addf7
p151
aVhttp://128.32.78.37:8080/activities/7a8e4cd6508e4094a12aedfb7f967af2
p152
aVhttp://128.32.78.37:8080/activities/b86c3d561237448ab50179e6f3d41fc8
p153
aVhttp://128.32.78.37:8080/activities/3877d889e5864f8198b00bd6d897a073
p154
aVhttp://128.32.78.37:8080/activities/10e91ada70544574a9c810563544bcf1
p155
aVhttp://128.32.78.37:8080/activities/3c8ca9316222412c86d424c1a90776ae
p156
aVhttp://128.32.78.37:8080/activities/55ba1fca88a241f6ace0924d0b2ea38a
p157
aVhttp://128.32.78.37:8080/activities/6a19006989094d399df619621e5fe707
p158
aVhttp://128.32.78.37:8080/activities/f0abfd8ac6c34476ad7247975fee4c61
p159
aVhttp://128.32.78.37:8080/activities/b6f180cba97846cabc1d5ee5d696c954
p160
aVhttp://128.32.78.37:8080/activities/5e9b12a413ec43b59d688d876ab40d76
p161
aVhttp://128.32.78.37:8080/activities/0b99b86013e04460beb994cb95f48e3a
p162
aVhttp://128.32.78.37:8080/activities/b9d35989243a4f27a80c320ca492d032
p163
aVhttp://128.32.78.37:8080/activities/6c33873e490244e0b07ad3898d814c33
p164
aVhttp://128.32.78.37:8080/activities/56f07b1df8e442fdbd5093c85efd98fc
p165
aVhttp://128.32.78.37:8080/activities/8103f637445e480fbbcc208179480304
p166
aVhttp://128.32.78.37:8080/activities/aaddac2309954acfbd000a026e3daffc
p167
aVhttp://128.32.78.37:8080/activities/7eaea54e12dc4ab6b471aeb60c99eb91
p168
aVhttp://128.32.78.37:8080/activities/7d2b73460b98475a8ffe3d9f9d031a8c
p169
aVhttp://128.32.78.37:8080/activities/8437b2d25386441dafe5edf862471729
p170
aVhttp://128.32.78.37:8080/activities/77ed96f1160542c59059f54d4d5b312c
p171
aV
aVhttp://128.32.78.37:8080/activities/c8bc6fe6917c4db6a358ab7cc1d52f4c
p172
aVhttp://128.32.78.37:8080/activities/c095deceaa884d41b7fe979c33ed7947
p173
aVhttp://128.32.78.37:8080/activities/42afd977e6fe44de84bc09a1502414db
p174
aVhttp://128.32.78.37:8080/activities/253ce662c27a48d5a4c24a3790cb40df
p175
aVhttp://128.32.78.37:8080/activities/bb159d77d6a54c43b13c1021df35d246
p176
aVhttp://128.32.78.37:8080/activities/7c85c58802304820b281625ef96eae6f
p177
aVhttp://128.32.78.37:8080/activities/3e3501d0745743f18e59d0e347d0b25f
p178
aVhttp://128.32.78.37:8080/activities/f3ed806b74334181a0f445805b4d65c2
p179
aVhttp://128.32.78.37:8080/activities/d35cfdb6b5dd4762936d30696da4e6bf
p180
aVhttp://128.32.78.37:8080/activities/b2df82940fe04fe9b2292bab9e05ecb1
p181
aVhttp://128.32.78.37:8080/activities/40ad77bc27cb4759aaf36aafb9bf641e
p182
aVhttp://128.32.78.37:8080/activities/e19c4a8fac8447d7b0d67c5af69c9dbf
p183
aVhttp://128.32.78.37:8080/activities/946fa36354f9409ea106f7b94b3eb827
p184
aVhttp://128.32.78.37:8080/activities/5a87df1773d7404cb770e989772c1964
p185
aVhttp://128.32.78.37:8080/activities/f20d70760a894dc79baaa3c433fe32f3
p186
aVhttp://128.32.78.37:8080/activities/c1d2744fe3264e0d9b0fa4d31f91a0ed
p187
aVhttp://128.32.78.37:8080/activities/0bf637d2b7e3495abe8656d4b148f0f1
p188
aVhttp://128.32.78.37:8080/activities/4e23686fbfe146c1bf64c0678f978dbd
p189
aVhttp://128.32.78.37:8080/activities/82779dd57587410a8322979c3d560214
p190
aVhttp://128.32.78.37:8080/activities/b985a28150984a66ab244627ea86d8cd
p191
aVhttp://128.32.78.37:8080/activities/1a5f4a1e8111479d88f9bc82c60be875
p192
aVhttp://128.32.78.37:8080/activities/8bd672553c934393b0b6e0f30520cc79
p193
aVhttp://128.32.78.37:8080/activities/06eceac318a14064bd7eef5c699fcede
p194
aVhttp://128.32.78.37:8080/activities/c40a9f1abf5a406dbbbdbecb017eaf97
p195
aVhttp://128.32.78.37:8080/activities/506fb1a5a3bc410aa798c66284b02363
p196
aVhttp://128.32.78.37:8080/activities/661f5d5ae01c485380d22aea6f574b78
p197
aVhttp://128.32.78.37:8080/activities/521fff09fee74567a7a2001f2bffe016
p198
aVhttp://128.32.78.37:8080/activities/6d7026347e584061839309b512d159c1
p199
aVhttp://128.32.78.37:8080/activities/ee9d18f6fb6342cd8073835446f530f8
p200
aVhttp://128.32.78.37:8080/activities/00da8a0094f243dfa146dc054ad6fe24
p201
aVhttp://128.32.78.37:8080/activities/ea1c4c4f76774ef9bef17f7252e066fa
p202
aVhttp://128.32.78.37:8080/activities/f857f8968a354369ae3617fecb4962ec
p203
aVhttp://128.32.78.37:8080/activities/fa649dd03e18489c8ae433bb2bbded35
p204
aVhttp://128.32.78.37:8080/activities/217618059b26458eac81a71f8a3ed7e9
p205
aVhttp://128.32.78.37:8080/activities/8291f8415084427a8ee7abc89134194e
p206
aVhttp://128.32.78.37:8080/activities/8fa01d655ae14488a4d13bea69dc7871
p207
aVhttp://128.32.78.37:8080/activities/cde9e0549d4647cf84eee032ebba8e6b
p208
aVhttp://128.32.78.37:8080/activities/1e449f0e56ea47e39e0ebba02a208b6f
p209
aVhttp://128.32.78.37:8080/activities/51b91f36028242b1898826463dc166e6
p210
aVhttp://128.32.78.37:8080/activities/8ac45a5718d7486ca220beb3b3b04348
p211
aVhttp://128.32.78.37:8080/activities/7ccd7be272c148848cf8d9b0e89ee7f3
p212
aVhttp://128.32.78.37:8080/activities/786b71afd25546949df39523757cacd1
p213
aVhttp://128.32.78.37:8080/activities/215bb16718f84571b6ada1be97fa53e9
p214
aVhttp://128.32.78.37:8080/activities/9ee7140c1a1b41719bd45a64e67bcf48
p215
aVhttp://128.32.78.37:8080/activities/f1fd5beb3f40444592db10839c84add1
p216
aVhttp://128.32.78.37:8080/activities/d701f72af7454b8dbbc1f34327a85929
p217
aVhttp://128.32.78.37:8080/activities/70ab8d857e384ae6b17db44fb470bb57
p218
aVhttp://128.32.78.37:8080/activities/c21ea1f44b3e46edae98e19e202a1b7d
p219
aVhttp://128.32.78.37:8080/activities/4d4f9f02574f442291573df60fb4b8d6
p220
aVhttp://128.32.78.37:8080/activities/71720b2fa5914ee3b57476664eb63511
p221
aVhttp://128.32.78.37:8080/activities/582daf3a40e84b38aa211d61f5b12082
p222
aVhttp://128.32.78.37:8080/activities/0e61a87f833f4e16bf7d32ffa11959e9
p223
aVhttp://128.32.78.37:8080/activities/72299f46002d40869bedb5a9bb9b72b2
p224
aVhttp://128.32.78.37:8080/activities/7e60f963a69f4edbae3d52d41a48ad2f
p225
aVhttp://128.32.78.37:8080/activities/429bc9953ae04f118b56bbf01bf1695f
p226
aVhttp://128.32.78.37:8080/activities/db119ce78e7b4687a8cccf0d5c7715f3
p227
aVhttp://128.32.78.37:8080/activities/55974ddfaff349a494e48fc05711e421
p228
aVhttp://128.32.78.37:8080/activities/c48c602253cf4eacb1d257db551e51c6
p229
aVhttp://128.32.78.37:8080/activities/cd4447025cd0465abde7632790b4023d
p230
aVhttp://128.32.78.37:8080/activities/4cac1c573d614adeb1277d820c136c9a
p231
aVhttp://128.32.78.37:8080/activities/63dddc4edcb1449583b104e47ca8e1f7
p232
aVhttp://128.32.78.37:8080/activities/be720c8b6613460589fff4a60cfcf287
p233
aVhttp://128.32.78.37:8080/activities/0468f098ff604b9fbf526cbb00f79f17
p234
aVhttp://128.32.78.37:8080/activities/867647ef8f3a4b43bc83b9c7b815ff53
p235
aVhttp://128.32.78.37:8080/activities/fb9d8e144cdc4f3aa20afeffa2093747
p236
aVhttp://128.32.78.37:8080/activities/f76ef412405449deb8127d925a2cac97
p237
aVhttp://128.32.78.37:8080/activities/4e4c7bf762444e6a84f2e2edeb1cd6f5
p238
aVhttp://128.32.78.37:8080/activities/77d1a3ada40648ce99bebaebb4687e63
p239
aVhttp://128.32.78.37:8080/activities/0d6659f365954c168e84bf4130b7cb58
p240
aVhttp://128.32.78.37:8080/activities/85e3828e9ccb4c2193deb6ea474c837c
p241
aVhttp://128.32.78.37:8080/activities/28124ff097464236a7df5443f01e74f0
p242
aVhttp://128.32.78.37:8080/activities/394cd8f9fec04648bf12c9a68d475f70
p243
aVhttp://128.32.78.37:8080/activities/263611a2c041449789bf6b00b0e0d351
p244
aVhttp://128.32.78.37:8080/activities/7c0ae83aa649441c8779c86cee2de5a9
p245
aVhttp://128.32.78.37:8080/activities/21ffa5b8cfb74a168c3b198933c1dc42
p246
aVhttp://128.32.78.37:8080/activities/c1784f2f29204c5493cb48401ed0a4f2
p247
aVhttp://128.32.78.37:8080/activities/69c584d50f9743f3a264b4c13f4f9d1a
p248
aVhttp://128.32.78.37:8080/activities/7c18f4dd353e4e21ba23ce98fb917469
p249
aVhttp://128.32.78.37:8080/activities/9f442f6835ca46febadb14822bd0e686
p250
aVhttp://128.32.78.37:8080/activities/669773b036a04553b782e5a39dbf22b6
p251
aVhttp://128.32.78.37:8080/activities/7e304e5d4a3a4c68bbbef03f5d652cee
p252
aVhttp://128.32.78.37:8080/activities/96e5e278c69243b1a80819d7591adba3
p253
aVhttp://128.32.78.37:8080/activities/5145ad6e592041e0bbb00cfa84ac1eae
p254
aVhttp://128.32.78.37:8080/activities/7aad89f1a5c943768933ce0bf15d3784
p255
aVhttp://128.32.78.37:8080/activities/2e21bb0520aa489b91f9320c300b655c
p256
aVhttp://128.32.78.37:8080/activities/38d6fbef7e5a4dc1a3253ff82b724d34
p257
aVhttp://128.32.78.37:8080/activities/70d79e2629f24ec6a890cd7633e8281e
p258
aVhttp://128.32.78.37:8080/activities/c08a379e2bb144eaa3498d613bf6a682
p259
aVhttp://128.32.78.37:8080/activities/2e73042beb804cf3afede7e207ecfe7e
p260
aVhttp://128.32.78.37:8080/activities/7e72cc9abb87455f944e6cea383eed29
p261
aVhttp://128.32.78.37:8080/activities/5b5c711814f24a1090f4a9a0666c95e9
p262
aVhttp://128.32.78.37:8080/activities/4a09b74a0f354c29a78ca7a82727b29e
p263
aVhttp://128.32.78.37:8080/activities/fb602bc51ace40bb9cb8fb3e0c12abc0
p264
aVhttp://128.32.78.37:8080/activities/2130ee7d610546869b14422fc9cd5902
p265
aVhttp://128.32.78.37:8080/activities/79b9ecb1e78b4e449c9dbc399d63a8bd
p266
aVhttp://128.32.78.37:8080/activities/00c0c0fa3c54454e91d1c4675193266a
p267
aVhttp://128.32.78.37:8080/activities/97b788739e9a4186bd992b8453dba2ca
p268
aVhttp://128.32.78.37:8080/activities/b112079922b7461ea6387f1786d553f8
p269
aVhttp://128.32.78.37:8080/activities/122bba2cbd8a4791904f325604d4c2f7
p270
aVhttp://128.32.78.37:8080/activities/28cdd4fc96c747d180cc5d7b5f4f5a3f
p271
aVhttp://128.32.78.37:8080/activities/beeaa6a4452549c7ab43d54b1e230ab1
p272
aVhttp://128.32.78.37:8080/activities/8c9692c7f63b489697258a9da8ae4f92
p273
aVhttp://128.32.78.37:8080/activities/0b7cf12a50974f6b8136e72e02d40496
p274
aVhttp://128.32.78.37:8080/activities/2f05c8e68a8d4b3d9533c12279e63fd0
p275
aVhttp://128.32.78.37:8080/activities/1d2b075a1ccc484696605497b58bf188
p276
aVhttp://128.32.78.37:8080/activities/a3959ae150554501ba26e7b564b0c0c2
p277
aVhttp://128.32.78.37:8080/activities/548eff5bc33443e0991e8b5ca1026751
p278
aVhttp://128.32.78.37:8080/activities/58bd213dcf5e438ca31a4fe8fca1346f
p279
aVhttp://128.32.78.37:8080/activities/6ce5f67c00864b5387ba0aabf2462597
p280
aVhttp://128.32.78.37:8080/activities/5c690d0ee39744d1b31b321d79066b85
p281
aVhttp://128.32.78.37:8080/activities/ecc26526e36a42e9aaffb7ce2ea0a9fd
p282
aVhttp://128.32.78.37:8080/activities/1e9086c9393b4804b811d2012bc369f0
p283
aVhttp://128.32.78.37:8080/activities/f68ad53733d54f439fc83041cb603112
p284
aVhttp://128.32.78.37:8080/activities/b4d5f55f788d4da38e3d41dd34ed7173
p285
aVhttp://128.32.78.37:8080/activities/8137cf01ed674f73ad98809c1a908212
p286
aVhttp://128.32.78.37:8080/activities/379f29396ba0478d8007afd2974d839a
p287
aVhttp://128.32.78.37:8080/activities/0f9948fb91c44ea8a983c881d7d07340
p288
aVhttp://128.32.78.37:8080/activities/5fc2dc53a4e043df994211b3e33bb9d4
p289
aVhttp://128.32.78.37:8080/activities/cce9df0a1c8b44318ed8cee0da0f42a3
p290
aVhttp://128.32.78.37:8080/activities/1bd613ce5d7f4ea19708e70f70fc1250
p291
aVhttp://128.32.78.37:8080/activities/a1cbbe337a064b29a86613f33a4c5ad7
p292
aVhttp://128.32.78.37:8080/activities/d8c323eafc8041ad960058b08d63287f
p293
aVhttp://128.32.78.37:8080/activities/d8b99055779a4255921651dc9a4f032b
p294
aVhttp://128.32.78.37:8080/activities/4796243c0168424b86dc9ec8db128996
p295
aVhttp://128.32.78.37:8080/activities/6d611edb743b4ef8a49edc09e2967d72
p296
aVhttp://128.32.78.37:8080/activities/80f2008462714d3ba67499fc44885674
p297
aVhttp://128.32.78.37:8080/activities/20aee8e63f3f4a2ea237e9804553ae60
p298
aVhttp://128.32.78.37:8080/activities/842b12da8e6f4d2abd2087b8a06480f4
p299
aVhttp://128.32.78.37:8080/activities/1288b6bb0ceb460bbfe44477d1122ae2
p300
aVhttp://128.32.78.37:8080/activities/6b728e6aff924d1f897a1e4c839c64f5
p301
aVhttp://128.32.78.37:8080/activities/27563bc73594473cbb79f3d98350740d
p302
aVhttp://128.32.78.37:8080/activities/c3d41535e6954d32b728f8889764080a
p303
aVhttp://128.32.78.37:8080/activities/a366e26f0a614fbfac70f663c5987fb0
p304
aVhttp://128.32.78.37:8080/activities/73732f2cc84e49e1b9d9396acbb951c2
p305
aVhttp://128.32.78.37:8080/activities/4dc80d7a6c11405c8b53d93603a064bf
p306
aVhttp://128.32.78.37:8080/activities/bca06b46a04d48dda9ce13a4b2956483
p307
aVhttp://128.32.78.37:8080/activities/2016953f9832485fa496d4348d139b86
p308
aVhttp://128.32.78.37:8080/activities/beccda11158a49d4bfeefc65bb5dc1e2
p309
aVhttp://128.32.78.37:8080/activities/86f2f947ac5d4206b817519bd9ad1854
p310
aVhttp://128.32.78.37:8080/activities/3728c66fe01b41ffaa0c75a6229d0741
p311
aVhttp://128.32.78.37:8080/activities/cfeefffa728440e39695918bb03d99bd
p312
aVhttp://128.32.78.37:8080/activities/3cb850ed6047465dbf8b14e2496f9d88
p313
aVhttp://128.32.78.37:8080/activities/b0a674d3684544a3b2f624378266272e
p314
aVhttp://128.32.78.37:8080/activities/3c11c17fd17749fe954207991704b560
p315
aVhttp://128.32.78.37:8080/activities/3ce6200a49c54b96991286f190a77425
p316
aVhttp://128.32.78.37:8080/activities/fffa1c675d2848e7b5c7c464ee4d6e44
p317
aVhttp://128.32.78.37:8080/activities/1c276d85c12c40dba14bda23b667f560
p318
aVhttp://128.32.78.37:8080/activities/553f575fd4374bf78ef909fd3a92a647
p319
aVhttp://128.32.78.37:8080/activities/d74d2aa11317469e9629a54a40e9ae1e
p320
aVhttp://128.32.78.37:8080/activities/2cbe4ec8b62b4b29b065fe77e3817572
p321
aVhttp://128.32.78.37:8080/activities/a03923311b3b4684a8c2d510ab4d1e0d
p322
aVhttp://128.32.78.37:8080/activities/bcb335fd8c5a4a5f896aad25dc31dd0d
p323
aVhttp://128.32.78.37:8080/activities/5de1e894548346ef9fe547c340a7bdd4
p324
aVhttp://128.32.78.37:8080/activities/0be88fd68fc44e9887dbd2652de045b6
p325
aVhttp://128.32.78.37:8080/activities/3ebf9c6103f841e4ade15726d596ad7f
p326
aVhttp://128.32.78.37:8080/activities/094f38e05aa9408b97dd01c4edd97be2
p327
aVhttp://128.32.78.37:8080/activities/35beaf7ecd394e16ba11cd15e9dbc5ec
p328
aVhttp://128.32.78.37:8080/activities/ebbaa07648994f5fb6f0f3c733818f2e
p329
aVhttp://128.32.78.37:8080/activities/8027efdda03244fa85079f9f4c02ebb8
p330
aVhttp://128.32.78.37:8080/activities/8f66aac194374938beaf1bf1dca284be
p331
aVhttp://128.32.78.37:8080/activities/9f13612b5b6948a0b6b6171d7f551752
p332
aVhttp://128.32.78.37:8080/activities/96203ca2f02040e1b8babcfa9ca0b0c9
p333
aVhttp://128.32.78.37:8080/activities/72c24d2503424730b41d04b38b038099
p334
aVhttp://128.32.78.37:8080/activities/7725d5a6ba3e4167b04cafaca6a16352
p335
aVhttp://128.32.78.37:8080/activities/11f4986ab1b64cae88490cf823064d2a
p336
aVhttp://128.32.78.37:8080/activities/0dcd84008fbc490aaa276bf34598c992
p337
aVhttp://128.32.78.37:8080/activities/e45c46e5309a4d42a691a1e1658414e1
p338
aVhttp://128.32.78.37:8080/activities/d8eafe2c1b1d44ffbfb557659967a09b
p339
aVhttp://128.32.78.37:8080/activities/45c43c4486a84d58b0f1a109cab57a9c
p340
aVhttp://128.32.78.37:8080/activities/9d25d7e36c67466d9088bc35bc0af121
p341
aVhttp://128.32.78.37:8080/activities/ea0a0c287adb4e99bff3e12cf9b11159
p342
aVhttp://128.32.78.37:8080/activities/1d14898744ef4bb387e43b61e2de86fe
p343
aVhttp://128.32.78.37:8080/activities/e6343e7b30904137b402c43198a4781e
p344
aVhttp://128.32.78.37:8080/activities/15676a9c5ce64d379f1c5d7f7cfeeaf3
p345
aVhttp://128.32.78.37:8080/activities/dd745679049e4a5c86d73db8e0499401
p346
aVhttp://128.32.78.37:8080/activities/07e7a43996f24ca4a453a2933b5f7afc
p347
aVhttp://128.32.78.37:8080/activities/f132b0c406734572881a5d74d38904de
p348
aVhttp://128.32.78.37:8080/activities/f783d5b8539c4347bea8b6ccd5e12c3a
p349
aVhttp://128.32.78.37:8080/activities/530de41293f14dfeb9d41547c5422018
p350
aVhttp://128.32.78.37:8080/activities/9a5b1b2eb1294a61943fbaab89db48fa
p351
aVhttp://128.32.78.37:8080/activities/388246b22e2d47eda1fcf6d2d85ce04d
p352
aVhttp://128.32.78.37:8080/activities/9727af4808984d50b7de68b2249beafc
p353
aVhttp://128.32.78.37:8080/activities/a01a1908b68d44649aa8a825730fb20a
p354
aVhttp://128.32.78.37:8080/activities/857c391900d2449496b78ee922aea2ca
p355
aVhttp://128.32.78.37:8080/activities/6a9f959b02654bc199389cac2b3a485c
p356
aVhttp://128.32.78.37:8080/activities/f972911c21b34d2494c202d1e7fe60b7
p357
aVhttp://128.32.78.37:8080/activities/54c8ac3cb1f642f29583e93e06ca3436
p358
aVhttp://128.32.78.37:8080/activities/833f539520634c6da89fd92484db9ddd
p359
aVhttp://128.32.78.37:8080/activities/24704fcd908545bc90e60c86c983376c
p360
aVhttp://128.32.78.37:8080/activities/57bdffc1eda24703aae1e66bde0b86f2
p361
aVcc4fd652ebae4293b047689efabc9155
p362
aVcca19ccedc854b7f851aa0d208466cad
p363
aV8dc297d81bb9484f84c9706a8472c491
p364
aVc88bda3d132448329ab44924c98bb765
p365
aV480ef36e0ca64cf0afd76d623d8ef009
p366
aVfb252a7d5abe403890778645eb7d7c34
p367
aVbd986f65f8414aba92436028d4472ded
p368
aV424f93b098824ee39b3da31ca1a017a7
p369
aV94e56ee87bdd437eb8ccb1bd00042409
p370
aV5e838029e4304c2c945efe24743be158
p371
aVb1de74527b6448649645ffd1ddc045ef
p372
aV408f8faed3a14e8db2acf3b89dec35ce
p373
aV3687198d00da48b3a420b6b323781029
p374
aV3a04936ad8a34dc39e078cc993cc5ba2
p375
aVhttp://128.32.78.37:8080/activities/bfb6970c7d714c268559dfc78fa9e737
p376
aVhttp://128.32.78.37:8080/activities/ca75a8e7a8bc4318ae161b2a589701bb
p377
aVhttp://128.32.78.37:8080/activities/9c6f5867667e4f17a9db66d9e8725aa4
p378
aVhttp://128.32.78.37:8080/activities/f9ecc4bd1521400db926e9026756fd87
p379
aVhttp://128.32.78.37:8080/activities/446d8d2f13dd45d5b00ac3406dd74ffe
p380
aVhttp://128.32.78.37:8080/activities/7331a246fcd94e4ca3d54d3a17fb1fde
p381
aVhttp://128.32.78.37:8080/activities/a0d7edd6abe0433790ecd5453d297bda
p382
aVhttp://128.32.78.37:8080/activities/0dfd001d765e46d2b4cc46f4ea7b344c
p383
aVhttp://128.32.78.37:8080/activities/2c2ba6bbdb2649b68020d06dd2988b07
p384
aVhttp://128.32.78.37:8080/activities/c87ca12612f64ef18024a6c0b3d69d74
p385
aVhttp://128.32.78.37:8080/activities/0a62502d46c0461b939f11c2a4cdc26b
p386
aVhttp://128.32.78.37:8080/activities/319bc56a471346c481b06d30da7e447e
p387
aVhttp://128.32.78.37:8080/activities/67eedb2c21be41df95bdb15f749ecc3e
p388
aVhttp://128.32.78.37:8080/activities/cda9ec611d0a4ff8bebe3d3e7544c7c6
p389
aVhttp://128.32.78.37:8080/activities/a59b01aee79742bba48bfd22dcdf05bc
p390
aVhttp://128.32.78.37:8080/activities/66bea3a1d6c845cb8e4ead3f2e142dbe
p391
aVhttp://128.32.78.37:8080/activities/2309251f7bde466c86cf6584faf978f5
p392
aVhttp://128.32.78.37:8080/activities/78bda1cc696d46ebaa8388143f1f2885
p393
aVhttp://128.32.78.37:8080/activities/67969e77289948408f90ea4e6820e48b
p394
aVhttp://128.32.78.37:8080/activities/85ebc8b017b347139605a1a1f3bae2e7
p395
aVhttp://128.32.78.37:8080/activities/f64b983d23af4a8180dab8529bb6c10f
p396
aVhttp://128.32.78.37:8080/activities/257dd83334864a3584feb2dc64e4f874
p397
aVhttp://128.32.78.37:8080/activities/62d2a3e570bb4166bc55a91b9c3af622
p398
aVhttp://128.32.78.37:8080/activities/503be51b64124e83a30a576a013ca743
p399
aVhttp://128.32.78.37:8080/activities/6e7e46c11d2c41c883573644f16761a8
p400
aVhttp://128.32.78.37:8080/activities/a703a4a8146d45ec987e21d49cf24c7e
p401
aVhttp://128.32.78.37:8080/activities/e95e1dfca5524f8b99f442d5d6d9753c
p402
aVhttp://128.32.78.37:8080/activities/f1315d09d4b24d10b9f249d8e2ab1319
p403
aVhttp://128.32.78.37:8080/activities/7c57f3336ec24497a336232471e4652d
p404
aVhttp://128.32.78.37:8080/activities/5bd2629b3215403686ce07655de46a5d
p405
aVhttp://128.32.78.37:8080/activities/7c6a5955f6eb471187c091d4ec61b7cc
p406
aVhttp://128.32.78.37:8080/activities/fb84f3b434e041f7861cc79890f8df27
p407
aVhttp://128.32.78.37:8080/activities/ba443bd7c7654acaa91b5f187e6e1dcc
p408
aVhttp://128.32.78.37:8080/activities/751640c6888443eab68506a5c06bc231
p409
aVhttp://128.32.78.37:8080/activities/d0afdb70ca5b49df9902979fe0560c42
p410
aVhttp://128.32.78.37:8080/activities/0983d33746744a59bb43583e06c38503
p411
aVhttp://128.32.78.37:8080/activities/a1ac48438ddd4a06a74063c56695d60e
p412
aVhttp://128.32.78.37:8080/activities/de0bb6de64754961b46d12cdb5f257f3
p413
aVhttp://128.32.78.37:8080/activities/9533fce494de44d5b49d3d2f215d9153
p414
aVhttp://128.32.78.37:8080/activities/6adb5a80863a44579e8ba9111a69ab47
p415
aVhttp://128.32.78.37:8080/activities/49da0bf02867465497dfcf2b77058cf5
p416
aVhttp://128.32.78.37:8080/activities/bc47de3a732f4de0b4e7da0e588354d2
p417
aVhttp://128.32.78.37:8080/activities/713709c2c77c4b69b3bbb144bc28bccc
p418
aVhttp://128.32.78.37:8080/activities/af68b3a946e04d789c9174679f52a5b9
p419
aVhttp://128.32.78.37:8080/activities/0d2ee0764913470fad4bdca6c5d83399
p420
aVhttp://128.32.78.37:8080/activities/b6f65def842744c38d04a1ebbfe7dec2
p421
aVhttp://128.32.78.37:8080/activities/d2b707381bbf4779a10652278ef29ab5
p422
aVhttp://128.32.78.37:8080/activities/3da8ee54c124434aabaf51e9700b2e09
p423
aVhttp://128.32.78.37:8080/activities/5f6f57d14d6d4d6686788cb6e2803dce
p424
aVhttp://128.32.78.37:8080/activities/5b15a84d08bc445aa39c8b98db8d0f1a
p425
aVhttp://128.32.78.37:8080/activities/bee96568c0114a1189617af49ca3cced
p426
aVhttp://128.32.78.37:8080/activities/06d912a425904189a08e7c58a2f97503
p427
aVhttp://128.32.78.37:8080/activities/e1df64666824495b87a1faf94647b4ba
p428
aVhttp://128.32.78.37:8080/activities/941de8289bdc4991841f123aba4dc3c7
p429
aVhttp://128.32.78.37:8080/activities/d8def0ab56b34c2ab8ca4adc4f1f6ea7
p430
aVhttp://128.32.78.37:8080/activities/984bb5ca134242568b8d9f0472b91d5c
p431
aVhttp://128.32.78.37:8080/activities/900ce1efd02943a2b6766a8859e58788
p432
aVhttp://128.32.78.37:8080/activities/8f5d4d7399374f8ea859975ae033f4c1
p433
aVhttp://128.32.78.37:8080/activities/07f345fe392f49349322fe16294e6519
p434
aVhttp://128.32.78.37:8080/activities/c9e1431ad3244415be11056b0542a065
p435
aVhttp://128.32.78.37:8080/activities/71a43564a2c04affb368bb55f5998228
p436
aVhttp://128.32.78.37:8080/activities/d356f5c184ac417cb4fe197c5e1076ec
p437
aVhttp://128.32.78.37:8080/activities/fbcbd250182341e68125a7208d6e203c
p438
aVhttp://128.32.78.37:8080/activities/011c896a0c6d4acb9f72acea0d53378a
p439
aVhttp://128.32.78.37:8080/activities/782683722bdd46c1bb0beb9a0313ba0d
p440
aVhttp://128.32.78.37:8080/activities/fefd022d3738460bbcdd033dfe728cef
p441
aVhttp://128.32.78.37:8080/activities/e93908b1d32e4412aebb4aaa3ffc2b05
p442
aVhttp://128.32.78.37:8080/activities/39dd03130f8640dbaea6851b34d037bf
p443
aVhttp://128.32.78.37:8080/activities/4e7f9899f4ac4559a939cd1277c6516b
p444
aVhttp://128.32.78.37:8080/activities/90c377dd2e774ca597126dcafda7f649
p445
aVhttp://128.32.78.37:8080/activities/a6545cd6acee4a0abd8e9b2dba07d968
p446
aVhttp://128.32.78.37:8080/activities/5935e163d5b542ef97acd597baf9fdcc
p447
aVhttp://128.32.78.37:8080/activities/78f9fdbbf2294764864827154690c796
p448
aVhttp://128.32.78.37:8080/activities/e6e5f8e63edd4e478f0b7cad38df365b
p449
aVhttp://128.32.78.37:8080/activities/8a7d8fdac782473daf50f7deb1c133e8
p450
aVhttp://128.32.78.37:8080/activities/0fc9eedd2316498797bcc1f4290f2d26
p451
aVhttp://128.32.78.37:8080/activities/b8709ca853b14a91b21a5640b1b99f94
p452
aVhttp://128.32.78.37:8080/activities/1422ed20da99484cb01eac0caf9d779f
p453
aVhttp://128.32.78.37:8080/activities/a68f03b8b3354251bf46e36b17d4607e
p454
aVhttp://128.32.78.37:8080/activities/ef1bf98489fe4762b1df860594239df2
p455
aVhttp://128.32.78.37:8080/activities/a96de92c921241fb8bbadc325a5b8da2
p456
aVhttp://128.32.78.37:8080/activities/f88b12f7d6744996ad39f9a89c6498a6
p457
aVhttp://128.32.78.37:8080/activities/da0836dd253640f6a2763a6359a5066b
p458
aVhttp://128.32.78.37:8080/activities/b3fcddefe8d34d37adaca9ad424f4024
p459
aVhttp://128.32.78.37:8080/activities/1c35a6729a65478aaa81e4b4ee2a9673
p460
aVhttp://128.32.78.37:8080/activities/98f802559dba4e70a481baef80d4860c
p461
aVhttp://128.32.78.37:8080/activities/6cf2ec10d7a7462b88988598b566de09
p462
aVhttp://128.32.78.37:8080/activities/80d1c199bbcd4c7c837a50b65ca7dc3d
p463
aVhttp://128.32.78.37:8080/activities/e0d3fada1ec74a9bb83778d5a358879e
p464
aVhttp://128.32.78.37:8080/activities/9b52dc8a28ed443fa1a3f472ba473152
p465
aVhttp://128.32.78.37:8080/activities/2189ab9be95f40fb89a4c23b8321e97b
p466
aVhttp://128.32.78.37:8080/activities/7e2c287cd5e543e68dcc347662c7ed6e
p467
aVhttp://128.32.78.37:8080/activities/0f1de5bf64fe4893b04d50b1be27b151
p468
aVhttp://128.32.78.37:8080/activities/8fbfd32fc5104011bb88b2daeb54b705
p469
aVhttp://128.32.78.37:8080/activities/6dbb9c424b9b4d35b432ff2005e50dd3
p470
aVhttp://128.32.78.37:8080/activities/5cc2a426f30d410e8bd8280182059bc2
p471
aVhttp://128.32.78.37:8080/activities/e366235ccd3841c4b1f9e06256415283
p472
aVhttp://128.32.78.37:8080/activities/f11cac75e4b745bb9b2f7975e0354265
p473
aVhttp://128.32.78.37:8080/activities/291e4887c3ba4291a51daf4483e603c7
p474
aVhttp://128.32.78.37:8080/activities/b1121f0a228b44a98f8c09ef51036b00
p475
aVhttp://128.32.78.37:8080/activities/afd9eb71c11b442eb4b278c2c6c77368
p476
aVhttp://128.32.78.37:8080/activities/84646f11283a4effb1eb417f0de0fec0
p477
aVhttp://128.32.78.37:8080/activities/1b0f979768f249f48f89bcc000661c6d
p478
aVhttp://128.32.78.37:8080/activities/dcd101a74a43471991bc29a31ce179ac
p479
aVhttp://128.32.78.37:8080/activities/e949aaff40af495197d392a5fb049c3c
p480
aVhttp://128.32.78.37:8080/activities/d3ff062b5d54443aa01e996089511950
p481
aVhttp://128.32.78.37:8080/activities/d730241a24454263a2a6200e2cf02625
p482
aVhttp://128.32.78.37:8080/activities/ef4385e716294a93ac952a7cf984f30f
p483
aVhttp://128.32.78.37:8080/activities/8f6eaf73de0c41fa91286a853230a650
p484
aVhttp://128.32.78.37:8080/activities/0c92a5a1b89840c8a176710622b499fc
p485
aVhttp://128.32.78.37:8080/activities/f7c8f3d374b94b259758da65db7732fb
p486
aVhttp://128.32.78.37:8080/activities/33716767869242faa50846cdd9ca7d46
p487
aVhttp://128.32.78.37:8080/activities/cea8dc5102ae4ccc9ae607000e99d3c4
p488
aVhttp://128.32.78.37:8080/activities/1cd808588193422f8eba74f3cb624eeb
p489
aVhttp://128.32.78.37:8080/activities/ffbd7929f84f416ca41b1508c7e9474c
p490
aVhttp://128.32.78.37:8080/activities/44e81c0a39304617956ed11d4fae1617
p491
aVhttp://128.32.78.37:8080/activities/b9d3afff9c964c09a55f387c94c96403
p492
aVhttp://128.32.78.37:8080/activities/9a68d81efebc4647ab1c576e9bde64f0
p493
aVhttp://128.32.78.37:8080/activities/974edcf3ea074db38d3b8621a2000251
p494
aVhttp://128.32.78.37:8080/activities/64c0daf6d54741339035430d67da5efc
p495
aVhttp://128.32.78.37:8080/activities/5c46826f2d364f2d8101483bd9417487
p496
aVhttp://128.32.78.37:8080/activities/ca50db39b4bb4f308528e6107f31aaa3
p497
aVhttp://128.32.78.37:8080/activities/7a6aeb80f1c34dc49373e384c1d7e20e
p498
aVhttp://128.32.78.37:8080/activities/4add70d6e1a54bcf8112d6b2867637a3
p499
aVhttp://128.32.78.37:8080/activities/1d3fd62279b74de4a07000bbdff55673
p500
aVhttp://128.32.78.37:8080/activities/844177d98b0f4f8fbedcd4a82a2388d0
p501
aVhttp://128.32.78.37:8080/activities/17d78b131cc24b9694e34424749b68b6
p502
aVhttp://128.32.78.37:8080/activities/290474d74d3f44e2bf6a8cf0e83ee05c
p503
aVhttp://128.32.78.37:8080/activities/8d175b444c26491d8438d29fb995edfe
p504
aVhttp://128.32.78.37:8080/activities/15f78af7994b46b7a4e1e051612789ad
p505
aVhttp://128.32.78.37:8080/activities/1094e17fe6f148ce8eba468d360e2d54
p506
aVhttp://128.32.78.37:8080/activities/62482517569b42d4bf614d92b9f05b97
p507
aVhttp://128.32.78.37:8080/activities/1384593ba3304142a631724480dc4cc8
p508
aVhttp://128.32.78.37:8080/activities/1b87b60bc62d43d081c70a9a0436d494
p509
aVhttp://128.32.78.37:8080/activities/674ad38e3d2b4f7cae57720a5f101ecb
p510
aVhttp://128.32.78.37:8080/activities/d1113ff2434e443a81d35fb2aeb5e551
p511
aVhttp://128.32.78.37:8080/activities/3e33c65d874f494fac0d940cd730ad01
p512
aVhttp://128.32.78.37:8080/activities/e576ac63816f4860843aeeff70b8763e
p513
aVhttp://128.32.78.37:8080/activities/4b7384994da7409a8d78f90f60469b61
p514
aVhttp://128.32.78.37:8080/activities/420ec660dbe54c49bbe5dcb839c7e813
p515
aVhttp://128.32.78.37:8080/activities/62ba850f2b8143b5a69466e18d4b0d97
p516
aVhttp://128.32.78.37:8080/activities/f0eb37c5f828403ab03cd9d645cca2b6
p517
aVhttp://128.32.78.37:8080/activities/fcb240100ba24a2ab5ba777ed1fa2e62
p518
aVhttp://128.32.78.37:8080/activities/81fdfcefe9104dd39cdcc9e41ef37eae
p519
aVhttp://128.32.78.37:8080/activities/75208a0116de4ad2847714908206b213
p520
aVhttp://128.32.78.37:8080/activities/c0ed9c62f1294d1d96d8dc2f984f55cd
p521
aVhttp://128.32.78.37:8080/activities/ebfbe7ebb57d4ef5a3f3476f1f468f12
p522
aVhttp://128.32.78.37:8080/activities/d320aa64a7844a6bbb97f8c4ec2b0bf9
p523
aVhttp://128.32.78.37:8080/activities/1b0cb310c7ca4e23a60303b8068cb31e
p524
aVhttp://128.32.78.37:8080/activities/362b53050f1146fc882b93e29a63d8fe
p525
aVhttp://128.32.78.37:8080/activities/164afbb7d3a64d05b6750cf414faed80
p526
aVhttp://128.32.78.37:8080/activities/eb384e8ab3724f6eb5581551a3cfebc4
p527
aVhttp://128.32.78.37:8080/activities/e5393a10f53e4ea6945257e6ed115ea1
p528
aVhttp://128.32.78.37:8080/activities/4c97b19a9ede4747b2ca5df5651d21be
p529
aVhttp://128.32.78.37:8080/activities/9d39c8c194444c12b8d20f0dda710797
p530
aVhttp://128.32.78.37:8080/activities/adc7251e9f9944478bc06a8151ab335f
p531
aVhttp://128.32.78.37:8080/activities/50e66812e19e456db32667669415d93e
p532
aVhttp://128.32.78.37:8080/activities/8b0a4875157b485c9e38b50fa16456df
p533
aVhttp://128.32.78.37:8080/activities/9dc6e81c5e404386a411996d6e27686b
p534
aVhttp://128.32.78.37:8080/activities/63bcbc94b0b04d7b9cb60e9259e914bf
p535
aVhttp://128.32.78.37:8080/activities/fea4ba02a6524ce4b485b2270fbe9f63
p536
aVhttp://128.32.78.37:8080/activities/42b38727a0c1438ba7076776389468e4
p537
aVhttp://128.32.78.37:8080/activities/8576fd3b2c8744a289726f863cda99e9
p538
aVhttp://128.32.78.37:8080/activities/193c5cc36d80410786b5dcf37616cf8a
p539
aVhttp://128.32.78.37:8080/activities/e3add1858ebc4b3e93475a6b206a4ffd
p540
aVhttp://128.32.78.37:8080/activities/815eadd83960475da508b22f2aeae4e9
p541
aVhttp://128.32.78.37:8080/activities/dba8aa79260e458fb046f7d6a9b0c959
p542
aVhttp://128.32.78.37:8080/activities/60649d6a12e749cab3f2ac24afab8f5a
p543
aVhttp://128.32.78.37:8080/activities/bd43c03d175c4231aa0f720accf3c652
p544
aVhttp://128.32.78.37:8080/activities/2056bcd951ea40b7a1a69161d5037601
p545
aVhttp://128.32.78.37:8080/activities/b6db7659ec504188859a8219b8dc063b
p546
aVhttp://128.32.78.37:8080/activities/19c6c0aa73094e289a7997be5f0a1202
p547
aVhttp://128.32.78.37:8080/activities/120358dc13fa44589fa9bd2c878bb66a
p548
aVhttp://128.32.78.37:8080/activities/e73d3715e0634e29b879560f70b49539
p549
aVhttp://128.32.78.37:8080/activities/c2e719d072bd491586f3220e97e89498
p550
aVhttp://128.32.78.37:8080/activities/4414777ac0fa4e75b2c23509bdbc3705
p551
aVhttp://128.32.78.37:8080/activities/d1545edc5ed14b01b8a6a640d047ab4e
p552
aVhttp://128.32.78.37:8080/activities/564b43f22e4a4c29ae347a0f26377022
p553
aVhttp://128.32.78.37:8080/activities/3ef5a9ff27744ba6b792dacb08d111b8
p554
aVhttp://128.32.78.37:8080/activities/da0a5b57cf114413b0c94f9a15ff9491
p555
aVhttp://128.32.78.37:8080/activities/383b87d68de2491a8596ad5ca3b191c8
p556
aVhttp://128.32.78.37:8080/activities/1cc6fd942f704b3e9c3ce05a682dec53
p557
aVhttp://128.32.78.37:8080/activities/a0cae6ce688f4ca89d844119a6a934a1
p558
aVhttp://128.32.78.37:8080/activities/5d32e03303a449dca86e57f47c3d8b96
p559
aVhttp://128.32.78.37:8080/activities/d625f225fa8b400486969af0a102162f
p560
aVhttp://128.32.78.37:8080/activities/ca8ad500e9554a518068579b26dfc8fc
p561
aVhttp://128.32.78.37:8080/activities/99ba28fe87d5429e94d9320416cc8e93
p562
aVhttp://128.32.78.37:8080/activities/c82290a946d5441fbc5ef63b256d84ed
p563
aVhttp://128.32.78.37:8080/activities/7c7c92700c9a40f283c86d46266b461d
p564
aVhttp://128.32.78.37:8080/activities/406833c7a897469889303273e8f3d800
p565
aVhttp://128.32.78.37:8080/activities/70f8071c48af49b3b23a529ec63ded8b
p566
aVhttp://128.32.78.37:8080/activities/6dc35d9b07fe4f83af77be6b53f3f170
p567
aVhttp://128.32.78.37:8080/activities/6970b38dccab49d1b4ea289423a0fed5
p568
aVhttp://128.32.78.37:8080/activities/b58d07f338284433b616211c2c25f7dd
p569
aVhttp://128.32.78.37:8080/activities/382006587176400ea5241070c3628de1
p570
aVhttp://128.32.78.37:8080/activities/d845801cd772492688bbb713d91dd712
p571
aVhttp://128.32.78.37:8080/activities/e7ee1ed0d3b44d54964e89192fc4a8bf
p572
aVhttp://128.32.78.37:8080/activities/1d313caac24d4f92b7cfcd8dc905256a
p573
aVhttp://128.32.78.37:8080/activities/8528e557ff5c4d7ebac04a429d04666e
p574
aVhttp://128.32.78.37:8080/activities/2bdb25fc9e62420eb52fc71aab6c0be2
p575
aVhttp://128.32.78.37:8080/activities/82dabbf5156e46cbbad47475c7d6a2d8
p576
aVhttp://128.32.78.37:8080/activities/177319f347e04643bec30c1f53c5479d
p577
aVhttp://128.32.78.37:8080/activities/61680be5d52d46c7888ca377469bfb4e
p578
aVhttp://128.32.78.37:8080/activities/9a71d553751c424f920a90c8f0944c82
p579
aVhttp://128.32.78.37:8080/activities/1e688180d1ab4ce08babb746a75544d0
p580
aVhttp://128.32.78.37:8080/activities/510a82b9e96346d79cd46cbb864e1cea
p581
aVhttp://128.32.78.37:8080/activities/080a5428cd5e45b78ee87bce3aa576ba
p582
aVhttp://128.32.78.37:8080/activities/03a2a141c89b4c69b004c47ae958eaff
p583
aVhttp://128.32.78.37:8080/activities/69d197599e6b43e5a4662c6ae1eae0a8
p584
aVhttp://128.32.78.37:8080/activities/0a8ce723901b403490faf7bfaa575291
p585
aVhttp://128.32.78.37:8080/activities/f2c5ae304fe94e698c04bdb16ef51099
p586
aVhttp://128.32.78.37:8080/activities/b3f4a8773e9c4561bc2f96807cada1dd
p587
aVhttp://128.32.78.37:8080/activities/9ff590b8170143edb9ea1fcd7aa8db91
p588
aVhttp://128.32.78.37:8080/activities/43a0d9fd4fbd4348a91c31703aaad1da
p589
aVhttp://128.32.78.37:8080/activities/e5d2db04c2c24b51b16331e89c1c3058
p590
aVhttp://128.32.78.37:8080/activities/77b0ada1ec0941a9bdd4965762a214d6
p591
aVhttp://128.32.78.37:8080/activities/a90352020b4349feb9d931de92416bac
p592
aVhttp://128.32.78.37:8080/activities/69e00811b1f946b9aa531fe97d1ae9a9
p593
aVhttp://128.32.78.37:8080/activities/6d7c7cf7a35d46dd990f30ac8cf9610c
p594
aVhttp://128.32.78.37:8080/activities/48ff7c8b6d194759bb7bec655389bd8f
p595
aVhttp://128.32.78.37:8080/activities/2cfc3fda17de4b7788f55568d11285ca
p596
aVhttp://128.32.78.37:8080/activities/1fb5d4f9084b462cb03b02ef9740e264
p597
aVhttp://128.32.78.37:8080/activities/35b016fb5e3a4ed89ec2ae181e1da8f7
p598
aVhttp://128.32.78.37:8080/activities/0b99d0c9d35249879a51f0e25cac1bb5
p599
aVhttp://128.32.78.37:8080/activities/1547755fd3ac4fd1914c94bf6fdafbbe
p600
aVhttp://128.32.78.37:8080/activities/c3b58ac1c7f840f0b3e08e09c1b52b1e
p601
aVhttp://128.32.78.37:8080/activities/b2424b072865453ab42fdf272b790105
p602
aVhttp://128.32.78.37:8080/activities/97e0b102e066431b972b90fff3088179
p603
aVhttp://128.32.78.37:8080/activities/721d82eadc0b43de840353f24854ecb0
p604
aVhttp://128.32.78.37:8080/activities/c175798c3a7544408886454371c92885
p605
aVhttp://128.32.78.37:8080/activities/e471428563bc48a3bc79b0da1ed9061b
p606
aVhttp://128.32.78.37:8080/activities/1747a8f069f24719969fc972167593e8
p607
aVhttp://128.32.78.37:8080/activities/cea2bb19f05041989fd753f414484e5a
p608
aVhttp://128.32.78.37:8080/activities/ea65a823e3594eef82b413e592643765
p609
aVhttp://128.32.78.37:8080/activities/2b8d0861e5aa4f41b0a0f8b697e02744
p610
aVhttp://128.32.78.37:8080/activities/163d16673b8641308fd44ddbdb4c162f
p611
aVhttp://128.32.78.37:8080/activities/93b05499bf7346da96359417ae0b9416
p612
aVhttp://128.32.78.37:8080/activities/64c630671db74b379b5da78e8ae0e833
p613
aVhttp://128.32.78.37:8080/activities/a4e5541707364b0c92da8fc56afe787e
p614
aVhttp://128.32.78.37:8080/activities/e9b8ba667d424023bb3541717dfda82d
p615
aVhttp://128.32.78.37:8080/activities/9d3df597f03c42c3b44924d9872016f1
p616
aVhttp://128.32.78.37:8080/activities/4a6a127abc3f4720b5ed53e363d5f9d5
p617
aVhttp://128.32.78.37:8080/activities/b0a41821848a41c99d32210dd6c886ac
p618
aVhttp://128.32.78.37:8080/activities/d9d05051703343edb340da721495cafc
p619
aVhttp://128.32.78.37:8080/activities/eef4389608d34b0d963b4b4e2f436b40
p620
aVhttp://128.32.78.37:8080/activities/c28047c9971a4d369b3ae9a3810f3306
p621
aVhttp://128.32.78.37:8080/activities/ef0dc0b264034368972ff6f8433332c6
p622
aVhttp://128.32.78.37:8080/activities/a199cbab46fb42a295ac6a86a39abd4d
p623
aVhttp://128.32.78.37:8080/activities/81d0740f2fb84943afecd6c96a51d941
p624
aVhttp://128.32.78.37:8080/activities/14ded9c6575c4a0eacaba289f4721ae7
p625
aVhttp://128.32.78.37:8080/activities/e6472b86e6f24ee2aa8432e1ee935aaf
p626
aVhttp://128.32.78.37:8080/activities/cd209b74c93f4453b83d361f158f23ee
p627
aVhttp://128.32.78.37:8080/activities/f14bd82d8ab640c884ce2be815e84ce3
p628
aVhttp://128.32.78.37:8080/activities/143c0f69061840488885bdd4d5929d17
p629
aVhttp://128.32.78.37:8080/activities/090b0bd6247e456988139b1cc804935c
p630
aVhttp://128.32.78.37:8080/activities/52e582fca3b34db5a1554760eb75765b
p631
aVhttp://128.32.78.37:8080/activities/58e029720cf94b8e9476a4e4e107e5b1
p632
aVhttp://128.32.78.37:8080/activities/fd8ee4d14eef4c5ea58182c030611bfe
p633
aVhttp://128.32.78.37:8080/activities/fe8108b4c66a417baa5765ccc0754cb1
p634
aVhttp://128.32.78.37:8080/activities/0269b660454043309093d02e05486886
p635
aVhttp://128.32.78.37:8080/activities/f3d885155cc84df9b708eaf2627eea3e
p636
aVhttp://128.32.78.37:8080/activities/9a6d244c5c8c4e42a933803739ce45d9
p637
aVhttp://128.32.78.37:8080/activities/306bff7cb5c64f7080fb0d2fbc0dffd0
p638
aVhttp://128.32.78.37:8080/activities/f46d0aa9f1c644b586f65d6c7667fb70
p639
aVhttp://128.32.78.37:8080/activities/7bb2e22fa0194217b5d47a3a0d364ee8
p640
aVhttp://128.32.78.37:8080/activities/b804755f8879432ca1da02a87ded0c82
p641
aVhttp://128.32.78.37:8080/activities/c0e752b639bc4636a7e5c059ee1ad4dd
p642
aVhttp://128.32.78.37:8080/activities/e33f694595df4a06b148b2c1fc8ec244
p643
aVhttp://128.32.78.37:8080/activities/29973749ec96457297b7701bffb7e9d7
p644
aVhttp://128.32.78.37:8080/activities/48f38c9e70e042cb81f2f8b1e9296e0b
p645
aVhttp://128.32.78.37:8080/activities/8c910aa0ff2a48fc8906d34cd3b159de
p646
aVhttp://128.32.78.37:8080/activities/23432d8e044c4e9ea468822e6dd4adb3
p647
aVhttp://128.32.78.37:8080/activities/74d6169544ec4906bf640b1c27099714
p648
aVhttp://128.32.78.37:8080/activities/dcae2b37cb4c43539f331a1099fc156b
p649
aVhttp://128.32.78.37:8080/activities/82f6eec7e9ee4ce3883b238f894530b0
p650
aVhttp://128.32.78.37:8080/activities/68a373d3ba654a4d8fb7b0f44df1b4b2
p651
aVhttp://128.32.78.37:8080/activities/5b1f95a4c5084f788731c02fb2de01a0
p652
aVhttp://128.32.78.37:8080/activities/a2ac3e5a0750485e8bca346fae0e4a39
p653
aVhttp://128.32.78.37:8080/activities/df287bc936d043669819f23534a67bc8
p654
aVhttp://128.32.78.37:8080/activities/35fb5317a6774ea3b78858c20e39b4a9
p655
aVhttp://128.32.78.37:8080/activities/82adf22c81e5462da8a621431ab2c206
p656
aVhttp://128.32.78.37:8080/activities/913dc8b1f2a24f3abc490303a1277c54
p657
aVhttp://128.32.78.37:8080/activities/7c8aee76520d42f9bb8028b7c6073e81
p658
aVhttp://128.32.78.37:8080/activities/fc68fd293b704137adbce5a3908b4057
p659
aVhttp://128.32.78.37:8080/activities/82c3ca3b802344c487733ddccd6b6f21
p660
aVhttp://128.32.78.37:8080/activities/019ab438f3d7474bba40bddac8b49f01
p661
aVhttp://128.32.78.37:8080/activities/403de7a76a124667b0fb43523585e108
p662
aVhttp://128.32.78.37:8080/activities/2e07bf6a1d4e4db8a204c5612a3bf055
p663
aVhttp://128.32.78.37:8080/activities/48e79d0910ea467dbafa61e9756ad13f
p664
aVhttp://128.32.78.37:8080/activities/f20a4770b5864d22a0649be76fb5ee41
p665
aVhttp://128.32.78.37:8080/activities/3c145ccbc31446b480f466e771e6651c
p666
aVhttp://128.32.78.37:8080/activities/56dd28e8e44c4223a449c9ecbed12a78
p667
aVhttp://128.32.78.37:8080/activities/1c736abab3e04a74b1fcb9482a4714d9
p668
aVhttp://128.32.78.37:8080/activities/ef29f51b8f9245dc9875e31db31d4ee5
p669
aVhttp://128.32.78.37:8080/activities/a99b9712e6ba45289098ac1793b45017
p670
aVhttp://128.32.78.37:8080/activities/523fc4c542ab41938c9f1eb9f5b1fdc2
p671
aVhttp://128.32.78.37:8080/activities/4efce1f7184a420e915bc748c8053714
p672
aVhttp://128.32.78.37:8080/activities/c28deb281c554b3ab22d3a4b0d7a7b9e
p673
aVhttp://128.32.78.37:8080/activities/493b785c93a94851beecc116195f23b0
p674
aVhttp://128.32.78.37:8080/activities/977ef6e26a9244d5b45f27a27492f1de
p675
aVhttp://128.32.78.37:8080/activities/6556dfdb062341ef8b05c518b05eb60e
p676
aVhttp://128.32.78.37:8080/activities/ff96b1d7d4b54b3f8124633c254bb536
p677
aVhttp://128.32.78.37:8080/activities/c69f006bbd3b4f4cb399c5e5ed809fb2
p678
aVhttp://128.32.78.37:8080/activities/baa845643a674025859648a24275ff52
p679
aVhttp://128.32.78.37:8080/activities/fbf266df625d4f1cb9ba44b0ef681bdc
p680
aVhttp://128.32.78.37:8080/activities/847e08c2a1cc4492ad62683c4659aa13
p681
aVhttp://128.32.78.37:8080/activities/844efb1721f14493866ab6c79dfed634
p682
aVhttp://128.32.78.37:8080/activities/30c5361080eb46208284ac742ea5c582
p683
aVhttp://128.32.78.37:8080/activities/703858d8bb254e419dff1c67e9152d81
p684
aVhttp://128.32.78.37:8080/activities/265c67df610e40a1ac6881e9cabac3ef
p685
aVhttp://128.32.78.37:8080/activities/7451a7fb898d47d580fd8c3c087a3e63
p686
aVhttp://128.32.78.37:8080/activities/837125fd967049dda7cbce94cc678913
p687
aVhttp://128.32.78.37:8080/activities/d975ff29a46449b4aa6b986f487de3fd
p688
aVhttp://128.32.78.37:8080/activities/f6c180066eb5405ca01ec50162ce1c08
p689
aVhttp://128.32.78.37:8080/activities/466fb6d36ff74c90b5bc8fc9625f86d3
p690
aVhttp://128.32.78.37:8080/activities/b9e97329e6fb46519ca6e7053866bc93
p691
aVhttp://128.32.78.37:8080/activities/9feb78f0aeee4605bd32ce7fcadafeae
p692
aVhttp://128.32.78.37:8080/activities/594db9fd5a8948b883eac96377019e4d
p693
aVhttp://128.32.78.37:8080/activities/2d91c411e87c45489dfcb61963bc25ac
p694
aVhttp://128.32.78.37:8080/activities/7c908e2fea66466186056544f5b89b96
p695
aVhttp://128.32.78.37:8080/activities/7dae033524e449a3b7c2bd4474b65648
p696
aVhttp://128.32.78.37:8080/activities/1e6529a5a96f42658c7693040de6fdbd
p697
aVhttp://128.32.78.37:8080/activities/b4b7a0a1374d4af9b0b8b648b2d7e5bc
p698
aVhttp://128.32.78.37:8080/activities/56b5a38743084f62af4bdafadf13ba86
p699
aVhttp://128.32.78.37:8080/activities/d0e75ee96743449790d8051480251db7
p700
aVhttp://128.32.78.37:8080/activities/11d44a2a1dd7495a9b9610d9a190e8df
p701
aVhttp://128.32.78.37:8080/activities/5811fed16afb4912b9750974f2c6d96f
p702
aVhttp://128.32.78.37:8080/activities/81153ee1d3c9417f805cfa281aaac4c4
p703
aVhttp://128.32.78.37:8080/activities/054eef0dfe2444ecae848fda7f2f9ed3
p704
aVhttp://128.32.78.37:8080/activities/240f09eee7ee4fdc864d508158f33510
p705
aVhttp://128.32.78.37:8080/activities/34f9795a6f3e4319abb9b3ab05c4bff5
p706
aVhttp://128.32.78.37:8080/activities/bd77fddf56fb420dad42f9e98f364317
p707
aVhttp://128.32.78.37:8080/activities/20fff62f797f4c96800ba21fc9ed6241
p708
aVhttp://128.32.78.37:8080/activities/76ed23b9fc2a49ebb62fa5bf26180f0a
p709
aVhttp://128.32.78.37:8080/activities/6f19215eeb9440f5bdac72170f144dc8
p710
aVhttp://128.32.78.37:8080/activities/7a5bb6aabfc14163b933d626fb53f91e
p711
aVhttp://128.32.78.37:8080/activities/25ee300fa22b4b4dacaa4f16f481f317
p712
aVhttp://128.32.78.37:8080/activities/8f1df806b0bd45d0b45a041efe2feaac
p713
aVhttp://128.32.78.37:8080/activities/f6f4d9d0ab694a82b520982d0aa84161
p714
aVhttp://128.32.78.37:8080/activities/e97f5e44386d4fd2806fef1fa2c193ed
p715
aVhttp://128.32.78.37:8080/activities/fbc7b80055894007ac4b6f44c8b28983
p716
aVhttp://128.32.78.37:8080/activities/49cb34ba53d940a590ba47e9a7f42705
p717
aVhttp://128.32.78.37:8080/activities/917d0088d8dc4e788eb8f2f0e81904f5
p718
aVhttp://128.32.78.37:8080/activities/b233522fbb654fc488537f930422ebc6
p719
aVhttp://128.32.78.37:8080/activities/4ce8529fc2fc4c4784001d14075a3834
p720
aVhttp://128.32.78.37:8080/activities/82da2aa98f534c1baf6681f9054eb9fd
p721
aVhttp://128.32.78.37:8080/activities/51532161b20f4eeebc459167130b579f
p722
aVhttp://128.32.78.37:8080/activities/873aed50867d43e68aade29c85ff94d1
p723
aVhttp://128.32.78.37:8080/activities/a553da342a684d46bdfe8d696970b448
p724
aVhttp://128.32.78.37:8080/activities/1676c7257e2f461fadd15b38360fa7f7
p725
aVhttp://128.32.78.37:8080/activities/d2de012ae8844a548e1cf562afaa2e24
p726
aVhttp://128.32.78.37:8080/activities/6bb547bdb2d24b27be11fd875f06492d
p727
aVhttp://128.32.78.37:8080/activities/3ec0a44abde74c95be2341eb3d71e405
p728
aVhttp://128.32.78.37:8080/activities/5a50d16bdd0c44698d1647670003c573
p729
aVhttp://128.32.78.37:8080/activities/d6e5c365938f45ba94a786f10bff2b41
p730
aVhttp://128.32.78.37:8080/activities/b11f32339b2143c6825a901f6b288156
p731
aVhttp://128.32.78.37:8080/activities/93d6c70fb48c46589d432991d201dd1d
p732
aVhttp://128.32.78.37:8080/activities/28e565670e9c434ab8aa4537bc832988
p733
aVhttp://128.32.78.37:8080/activities/ef88c6d701124268bfec94542ed04e91
p734
aVhttp://128.32.78.37:8080/activities/40a5cc45cfe84b46a16f91091b19c1b2
p735
aVhttp://128.32.78.37:8080/activities/edd6e4efd7234d769b1d00ee900c67a3
p736
aVhttp://128.32.78.37:8080/activities/5037714d1763429d9b3d9d4c42177c6e
p737
aVhttp://128.32.78.37:8080/activities/992b19c80b3348668ec9d6a6424e8330
p738
aVhttp://128.32.78.37:8080/activities/d16a210bbd1447b88702eb14062990ed
p739
aVhttp://128.32.78.37:8080/activities/90aa14dca2354e678974eb9c1528db16
p740
aVhttp://128.32.78.37:8080/activities/b442390c7396464eb6002d4b755ba058
p741
aVhttp://128.32.78.37:8080/activities/ba76f9363fd2414da7759ae05279d0ee
p742
aVhttp://128.32.78.37:8080/activities/4cf54f3fbb9d484b9ce9b99fa7983a6f
p743
aVhttp://128.32.78.37:8080/activities/fa723b4d203345f59b064e290d548033
p744
aVhttp://128.32.78.37:8080/activities/5529e65643494b039700925a5cf2daf7
p745
aVhttp://128.32.78.37:8080/activities/90401f37844d4b62aa222375c9261959
p746
aVhttp://128.32.78.37:8080/activities/8f64abb7ea5f43b6a7140519f2edaec8
p747
aVhttp://128.32.78.37:8080/activities/6500737e921b4451acb6f7822efabb3d
p748
aVhttp://128.32.78.37:8080/activities/3272a204d9e343ce89ab166531a21b25
p749
aVhttp://128.32.78.37:8080/activities/158e112745ac43d08bf9fa9a181bceee
p750
aVhttp://128.32.78.37:8080/activities/3a297bd1ecd741638dae3d154b8214cb
p751
aVhttp://128.32.78.37:8080/activities/fb1e8c842d6c4a2d935b97066f12e56e
p752
aVhttp://128.32.78.37:8080/activities/9e339bf56ca74a5db640bc92a98aa44e
p753
aVhttp://128.32.78.37:8080/activities/a0cff69738cc4acc89800ecc98299517
p754
aVhttp://128.32.78.37:8080/activities/19789f3428574980a7b5b859c67dd93a
p755
aVhttp://128.32.78.37:8080/activities/ff70a8aafd2648149c6965ad61a4f270
p756
aVhttp://128.32.78.37:8080/activities/2fe7b93155f94f21b56ba7925888388f
p757
aVhttp://128.32.78.37:8080/activities/a1cfbcc9a824461daecab1ccfa8dfc38
p758
aVhttp://128.32.78.37:8080/activities/db869f539ec8422e8a89e630ad242092
p759
aVhttp://128.32.78.37:8080/activities/53ad02185af845c5a9d5310f35d9c1ed
p760
aVhttp://128.32.78.37:8080/activities/6547e71e7fa1478ebba21384a407e979
p761
aVhttp://128.32.78.37:8080/activities/87167929878742e5a9bc386c989ff761
p762
aVhttp://128.32.78.37:8080/activities/a2a8942098e04268aca7aca826427e67
p763
aVhttp://128.32.78.37:8080/activities/67a62a23757e4193af4ec218fb2dda10
p764
aVhttp://128.32.78.37:8080/activities/f5922c5121594fc6929a42e5523c92d8
p765
aVhttp://128.32.78.37:8080/activities/0988fd0e10c64e1a8ef92da644bd2708
p766
aVhttp://128.32.78.37:8080/activities/64717ba92bdd4e9bb94c29086a0b6af4
p767
aVhttp://128.32.78.37:8080/activities/1a7ce345ed7544deb6acc2c80ad5f458
p768
aVhttp://128.32.78.37:8080/activities/de04d6adfe9b43cc9edb8533dd331213
p769
aVhttp://128.32.78.37:8080/activities/dd186bb78a6c4077860773c690282783
p770
aVhttp://128.32.78.37:8080/activities/902de1c07d194cc38cd19c01a38783c3
p771
aVhttp://128.32.78.37:8080/activities/6a40d72efbae4ca68fdeb6f849623198
p772
aVhttp://128.32.78.37:8080/activities/76e501b1e89c4b86ba471e4f59b87d78
p773
aVhttp://128.32.78.37:8080/activities/3c9e75ece66e4c0a8c564df369dc6f37
p774
aVhttp://128.32.78.37:8080/activities/b30acd7a78ae402d91f2426fcc9dce38
p775
aVhttp://128.32.78.37:8080/activities/c3b454e5fbee4aeeaf260dca11e46cb3
p776
aVhttp://128.32.78.37:8080/activities/922a3fc906ab46c1b66bebff2e423198
p777
aVhttp://128.32.78.37:8080/activities/d93f43ce7dd34a14a5e6a5d336575ee9
p778
aVhttp://128.32.78.37:8080/activities/0675ac4745034c8eae9e29dcdb225338
p779
aVhttp://128.32.78.37:8080/activities/6c40dd96661a4923a96ea65c9debf54d
p780
aVhttp://128.32.78.37:8080/activities/c40939f076a5426f8714947568917f2c
p781
aVhttp://128.32.78.37:8080/activities/17f4af5357a04399b59c2c7ccde3c071
p782
aVhttp://128.32.78.37:8080/activities/5945b6b01e424df7b80e36d00287197e
p783
aVhttp://128.32.78.37:8080/activities/b0122d56bca44530a0156eb620ecb4c7
p784
aVhttp://128.32.78.37:8080/activities/59fb852e21614e7c920f96f9bac186ec
p785
aVhttp://128.32.78.37:8080/activities/3b47b08be8634964b0e12355e274cd45
p786
aVhttp://128.32.78.37:8080/activities/babf79e0af504ce5bf4905148b6d2f3e
p787
aVhttp://128.32.78.37:8080/activities/b3c3b31acbb549a9aed1db01621079d6
p788
aVhttp://128.32.78.37:8080/activities/d1ddf4b196cd4fd8bddb33e994049e2f
p789
aVhttp://128.32.78.37:8080/activities/8c2c47d1c848413bac9ad66a39da69ab
p790
aVhttp://128.32.78.37:8080/activities/080967b37b13472e9282015d1b9efd60
p791
aVhttp://128.32.78.37:8080/activities/0f3be33c3bb04c3f8078d224b23c92fb
p792
aVhttp://128.32.78.37:8080/activities/22099c3312064701a897ca4bd8459b34
p793
aVhttp://128.32.78.37:8080/activities/d3a97185b1b94a489c1d949d8cd8e526
p794
aVhttp://128.32.78.37:8080/activities/9aefac9485de495ba13a7c41fb170f13
p795
aVhttp://128.32.78.37:8080/activities/242f48a81ba746c8b31ad36851d32812
p796
aVhttp://128.32.78.37:8080/activities/a614a307dc4c495e8e222780f234c128
p797
aVhttp://128.32.78.37:8080/activities/1fbf89e10c134285a8c762372363c2b6
p798
aVhttp://128.32.78.37:8080/activities/7f94b1e5613243d5ad4b6a8677842002
p799
aVhttp://128.32.78.37:8080/activities/e6a5de33f6c446a2a0cf6cc8b90fbb82
p800
aVhttp://128.32.78.37:8080/activities/395ea5823cb943a8893c6a9f19a07c1b
p801
aVhttp://128.32.78.37:8080/activities/4ea48d08b12b43b4b37e0178635b4833
p802
aVhttp://128.32.78.37:8080/activities/664cfd2baf254a55a4349ee2206bc792
p803
aVhttp://128.32.78.37:8080/activities/8becda35900f4b7ba9cd751d1cb65659
p804
aVhttp://128.32.78.37:8080/activities/cac31268af02472c992d34431e301c82
p805
aVhttp://128.32.78.37:8080/activities/b1a7e04e0b314e579670455a75855252
p806
aVhttp://128.32.78.37:8080/activities/ae1355ec7540414a8260a6b82342fd50
p807
aVhttp://128.32.78.37:8080/activities/943c414d504e412b84d89b22db494bd1
p808
aVhttp://128.32.78.37:8080/activities/02ff44dbffa24a3692ec15efa3f9ce1b
p809
aVhttp://128.32.78.37:8080/activities/4bb9aaf128b34fb3a2bedf29e9df5cc4
p810
aVhttp://128.32.78.37:8080/activities/2b8b4dc817984043a5fc8576afa5eaf8
p811
aVhttp://128.32.78.37:8080/activities/2ba54c059d8c4deda100fd712da49674
p812
aVhttp://128.32.78.37:8080/activities/579710d2a2b847aba81f9fa0acad22c1
p813
aVhttp://128.32.78.37:8080/activities/8f72044d3f634559abc3442859335880
p814
aVhttp://128.32.78.37:8080/activities/0b83e6354bc94e6e9618b67cad2c33d8
p815
aVhttp://128.32.78.37:8080/activities/e20d544d841d4954b4112642d6febd89
p816
aVhttp://128.32.78.37:8080/activities/877199f8ff894c8ea455cfe3aa8b30cd
p817
aVhttp://128.32.78.37:8080/activities/cfed6d9c87cb41bdab3c9e5832fbc5de
p818
aVhttp://128.32.78.37:8080/activities/e3bf2ba85d7f44f7a6841b52819b8a6a
p819
aVhttp://128.32.78.37:8080/activities/d37f6b3099f345b7952430f4f5272bae
p820
aVhttp://128.32.78.37:8080/activities/7e159c6228844aa99df4e3a76f84e96f
p821
aVhttp://128.32.78.37:8080/activities/dbc0487b9e38438fb04bb5b8071c3a0c
p822
aVhttp://128.32.78.37:8080/activities/3ff5928ed5464508998aa83da3e6b7f0
p823
aVhttp://128.32.78.37:8080/activities/74eba87516334b51ba1a4b85bc837a1f
p824
aVhttp://128.32.78.37:8080/activities/e0c6e93368bf4f7a9a8b1810eaf0a0dd
p825
aVhttp://128.32.78.37:8080/activities/30cd7269964440728bb3e7e4e4fc1355
p826
aVhttp://128.32.78.37:8080/activities/422384a23e7444adb5c9061042a39f52
p827
aVhttp://128.32.78.37:8080/activities/673b8e6116cc42fc9d28e588086875a3
p828
aVhttp://128.32.78.37:8080/activities/88de5884c24c4c60ab5ea72ae8ae900d
p829
aVhttp://128.32.78.37:8080/activities/886e7aa8e1964f03806dde361f5d0511
p830
aVhttp://128.32.78.37:8080/activities/cfff9a2a8ab14b919420df3beed9024a
p831
aVhttp://128.32.78.37:8080/activities/d086c4437a234250ac5d90fdbb9636f1
p832
aVhttp://128.32.78.37:8080/activities/a204389a6f904af583aaeab97d042f65
p833
aVhttp://128.32.78.37:8080/activities/2297206306284ff9ba243844d1a34591
p834
aVhttp://128.32.78.37:8080/activities/ae6b33e135134f76820f8d42fff34254
p835
aVhttp://128.32.78.37:8080/activities/1a14563fc972462cbf08aaee6e4b8578
p836
aVhttp://128.32.78.37:8080/activities/ae036784a1a54e968da149b158af0668
p837
aVhttp://128.32.78.37:8080/activities/dbc5871eb099418b9a256812c5244c1d
p838
aVhttp://128.32.78.37:8080/activities/e1803e52fb5f4edfb8d71bd56db34279
p839
aVhttp://128.32.78.37:8080/activities/2bf358fd11704d598ef34c26412cf0f9
p840
aVhttp://128.32.78.37:8080/activities/647cdef58e234b0fb465809d6ee7aa86
p841
aVhttp://128.32.78.37:8080/activities/37c2d9766b7a47579860a7e0fffa601d
p842
aVhttp://128.32.78.37:8080/activities/a401eabc275741cc8768f40d84cb26fb
p843
aVhttp://128.32.78.37:8080/activities/50ab33e59e734382b50a59968f69f97c
p844
aVhttp://128.32.78.37:8080/activities/7ea561a0b9ed45e586134d1ab3649c9c
p845
aVhttp://128.32.78.37:8080/activities/6ec97afb168f46de8c778b4427558b1a
p846
aVhttp://128.32.78.37:8080/activities/b2d113e6a3864dd3b27f476ae06ec2eb
p847
aVhttp://128.32.78.37:8080/activities/3807a6eed3e9474da28ca7f12bb52a3a
p848
aVhttp://128.32.78.37:8080/activities/6a102a1f93164869bcc0841f89bf74e3
p849
aVhttp://128.32.78.37:8080/activities/0e12877905eb4233971e2b2476e6f86d
p850
aVhttp://128.32.78.37:8080/activities/1848c88b686c483c9207f66c587f9063
p851
aVhttp://128.32.78.37:8080/activities/580d8f96e38c466d83cbe11b7da5997a
p852
aVhttp://128.32.78.37:8080/activities/aeb45158d8eb450b97ac2f7cbbb170d9
p853
aVhttp://128.32.78.37:8080/activities/38bb01cc89b3411096dc0e79d0215a33
p854
aVhttp://128.32.78.37:8080/activities/2f4e7c20b2b84a7b81d65201f9ffdee2
p855
aVhttp://128.32.78.37:8080/activities/6101a426d2724ae4afd5b496364a2227
p856
aVhttp://128.32.78.37:8080/activities/5ebcdab6aa4f4c6290fbb6ce031f05ed
p857
aVhttp://128.32.78.37:8080/activities/50b36c7c3163494d99be197611a5e2ad
p858
aVhttp://128.32.78.37:8080/activities/0aef756ac004445f835813a5cb21c4d3
p859
aVhttp://128.32.78.37:8080/activities/2a8c85a533564fcf92818bb9ccadc582
p860
aVhttp://128.32.78.37:8080/activities/40d28641a7ac448ea649c8d3af37ef0a
p861
aVhttp://128.32.78.37:8080/activities/041f9c16aa39489480ac1bc547e38257
p862
aVhttp://128.32.78.37:8080/activities/9aeddd371d4745ac96841b9dde962640
p863
aVhttp://128.32.78.37:8080/activities/ccbf2bf7d9e345da8ec595856cdcfa00
p864
aVhttp://128.32.78.37:8080/activities/cdde61b4f95e479aab409647315fcc9e
p865
aVhttp://128.32.78.37:8080/activities/1b35443f64814329b915189a20a8d357
p866
aVhttp://128.32.78.37:8080/activities/cc27d3330bf44a3d85e05e75ee3abafd
p867
aVhttp://128.32.78.37:8080/activities/a90d0a4557e945aeac5d9ed45f2cec43
p868
aVhttp://128.32.78.37:8080/activities/efa0d4f9e6d2479a8885dd20e79725b4
p869
aVhttp://128.32.78.37:8080/activities/40c91bf6d1e2437aac87e05270c13bf7
p870
aVhttp://128.32.78.37:8080/activities/1c2abc340f4a43a4b91cd29da77da07f
p871
aVhttp://128.32.78.37:8080/activities/110dcee2253b4f209b4a8a5afeb595da
p872
aVhttp://128.32.78.37:8080/activities/0a8bc3ab1c87418db2836fec55de9d52
p873
aVhttp://128.32.78.37:8080/activities/22739f3a171c44938fce3c72d4a3dbb3
p874
aVhttp://128.32.78.37:8080/activities/dbdadb2092b34b31a6b185b240e084e3
p875
aVhttp://128.32.78.37:8080/activities/7fce5e1227cf4a309b0e940eaea843aa
p876
aVhttp://128.32.78.37:8080/activities/cfb4a4a6469644218a6ea81efc030bf3
p877
aVhttp://128.32.78.37:8080/activities/e26374e52ccd4f4e9c3eac99dc579011
p878
aVhttp://128.32.78.37:8080/activities/0368921ac52148dfb8781f4252b5ec74
p879
aVhttp://128.32.78.37:8080/activities/e24e099584cd4be190d1b9bfc3e629c3
p880
aVhttp://128.32.78.37:8080/activities/70d1eb5f8bc8441aa99e941daa99741a
p881
aVhttp://128.32.78.37:8080/activities/a2c1737d9ea84d7ea1883a9cd61c0487
p882
aVhttp://128.32.78.37:8080/activities/bda1274751f343209b91fbdba271a7c4
p883
aVhttp://128.32.78.37:8080/activities/cea8e8abe3a94c4b92565c7f04c5e524
p884
aVhttp://128.32.78.37:8080/activities/42867c1486e04900b4f0cb63eb6e36ac
p885
aVhttp://128.32.78.37:8080/activities/f3615de24e0c4500a9173e4b01629179
p886
aVhttp://128.32.78.37:8080/activities/67ccd193d28c42839b604849947713a7
p887
aVhttp://128.32.78.37:8080/activities/5c5dbd71c09b41bbab0e64813f690ebe
p888
aVhttp://128.32.78.37:8080/activities/931bcfc60b9346e29fe5ed8a9e3fa9ae
p889
aVhttp://128.32.78.37:8080/activities/d3d5f1c2f9b74577803544fe6278d87d
p890
aVhttp://128.32.78.37:8080/activities/5d8f149ff36c4177b63a7443913f7be7
p891
aVhttp://128.32.78.37:8080/activities/95f6bf17ea5049db9015810f71f958e2
p892
aVhttp://128.32.78.37:8080/activities/be5b07b66b124e8c9b2f8d432eb554c0
p893
aVhttp://128.32.78.37:8080/activities/046e798f670d40b997a6025570d5b752
p894
aVhttp://128.32.78.37:8080/activities/1e222e60f06645f3ba5ba32078658497
p895
aVhttp://128.32.78.37:8080/activities/6d2bbf352d03405c8c26078b011d1d60
p896
aVhttp://128.32.78.37:8080/activities/d28c66f28512474aabde585f51b3edcf
p897
aVhttp://128.32.78.37:8080/activities/9f116cf54d394ff79c80f532f74f8b65
p898
aVhttp://128.32.78.37:8080/activities/f39f1f5e7cd54bed8fd8437e0cf42f51
p899
aVhttp://128.32.78.37:8080/activities/1639ece19deb44ecae75e97155773f77
p900
aVhttp://128.32.78.37:8080/activities/bb2e059d0c0240368a9a6729265354b9
p901
aVhttp://128.32.78.37:8080/activities/181844df5ca94be2a2d5a942c7663534
p902
aVhttp://128.32.78.37:8080/activities/53dd74b3aadf48fb8df0e1dbec5edfd2
p903
aVhttp://128.32.78.37:8080/activities/0fc0d51b57dd45eb988952db1dc9bb4e
p904
aVhttp://128.32.78.37:8080/activities/45f7818c7ff04e85a03b34ebaec09b75
p905
aVhttp://128.32.78.37:8080/activities/5bad94ebaa1047a48707b3f8e8b37d4b
p906
aVhttp://128.32.78.37:8080/activities/2827bfc472c74c6f8e21c0ad1496fc01
p907
aVhttp://128.32.78.37:8080/activities/e20f1999ab2f40f7a3d91ee4f39fef2d
p908
aVhttp://128.32.78.37:8080/activities/f8309abec61245e498c6d6912f52c328
p909
aVhttp://128.32.78.37:8080/activities/8861babbb41649f28b033f352e97bda0
p910
aVhttp://128.32.78.37:8080/activities/e9341b4a52df49d0a04a5127f7beae95
p911
aVhttp://128.32.78.37:8080/activities/412f888d2ac148efb69ef5e5e9c04246
p912
aVhttp://128.32.78.37:8080/activities/a8df2015c3da4645b6de42a4d43ba313
p913
aVhttp://128.32.78.37:8080/activities/680ae3b8fe1448dc9cfd6d25c5456835
p914
aVhttp://128.32.78.37:8080/activities/a9c9d12a9b7147e08b814f63ff0f208a
p915
aVhttp://128.32.78.37:8080/activities/4300c05bce5d413e8fc105387237ff5f
p916
aVhttp://128.32.78.37:8080/activities/aef486e0b650465499247ec3d42abd48
p917
aVhttp://128.32.78.37:8080/activities/c784d8af949c4a3fab8c755364ef4f99
p918
aVhttp://128.32.78.37:8080/activities/c3b729a48b004cf494dfee5b5b2cac32
p919
aVhttp://128.32.78.37:8080/activities/89f45ba72ab34033bcbe751518b27a78
p920
aVhttp://128.32.78.37:8080/activities/2aa8e47ed306491e96b8e6653dfa534c
p921
aVhttp://128.32.78.37:8080/activities/59f9c5ad9ee64371bf08f78a0f0db1be
p922
aVhttp://128.32.78.37:8080/activities/88cd637738c144b5a5ab903a80b3783b
p923
aVhttp://128.32.78.37:8080/activities/0b04a6b2ace741c1a540ea7c001ace31
p924
aVhttp://128.32.78.37:8080/activities/3794572591824fadbc11824ac39eb477
p925
aVhttp://128.32.78.37:8080/activities/bdebfaef7e3e4b85b8f75da58b59a48a
p926
aVhttp://128.32.78.37:8080/activities/c425f3dcd7e84b4785f7544a76fa0bfc
p927
aVhttp://128.32.78.37:8080/activities/e181c948535a4743b9c781c7769cb9b8
p928
aVhttp://128.32.78.37:8080/activities/9eb6a5077cf340cf9988ec658ddd740b
p929
aVhttp://128.32.78.37:8080/activities/f809c59d50c94fa3a69eb9ec79b58004
p930
aVhttp://128.32.78.37:8080/activities/fe4f5e2841b5481dbf2a25e63a95a538
p931
aVhttp://128.32.78.37:8080/activities/d9ad4bd247634293b7754d728ee82162
p932
aVhttp://128.32.78.37:8080/activities/c22cdaf1864344fd9eaa2f7fcf32fae3
p933
aVhttp://128.32.78.37:8080/activities/37e8d8b59b12412caa1c0a2be76d2290
p934
aVhttp://128.32.78.37:8080/activities/aa2cd8a313ba461f8d2b71c61cdf729b
p935
aVhttp://128.32.78.37:8080/activities/9c489440c1794b53a05511cbbce6aa1e
p936
aVhttp://128.32.78.37:8080/activities/d71bc986e5884099962101a6546f9104
p937
aVhttp://128.32.78.37:8080/activities/94e13b7e2cda4a1b9acffb14b314eb37
p938
aVhttp://128.32.78.37:8080/activities/e70f7acfec4c4ee094bf099709a4d081
p939
aVhttp://128.32.78.37:8080/activities/c569900b59674d02a5ee6a594698f020
p940
aVhttp://128.32.78.37:8080/activities/4e0d3a9346194429952d2a49131b22d7
p941
aVhttp://128.32.78.37:8080/activities/217cb02015af49bdb28276bb55ebb0fd
p942
aVhttp://128.32.78.37:8080/activities/2d6f05164a9d48b1bf6b336b28833cc7
p943
aVhttp://128.32.78.37:8080/activities/3d8e29aaa2b64349be6524c0d83b86a6
p944
aVhttp://128.32.78.37:8080/activities/8907396f0374445099e7491937fa6a87
p945
aVhttp://128.32.78.37:8080/activities/835cd66bb20444c08c946dbc40d88f5f
p946
aVhttp://128.32.78.37:8080/activities/608c0a7c014849fba2c9d0ff77ac6c71
p947
aVhttp://128.32.78.37:8080/activities/09e538ea69154d8b945cf33577f8f2cb
p948
aVhttp://128.32.78.37:8080/activities/0cbb46991fb84b438b42135149ea631a
p949
aVhttp://128.32.78.37:8080/activities/779c985211124f18ac3f99c3b14aac10
p950
aVhttp://128.32.78.37:8080/activities/068b1257db8641b095ffa1216eda8bf9
p951
aVhttp://128.32.78.37:8080/activities/1a956cd9e7e347d6b9cb0aede19b1762
p952
aVhttp://128.32.78.37:8080/activities/648754af300e4e0fb1141292e9782a30
p953
aVhttp://128.32.78.37:8080/activities/2a75a702d6c14763b75ebeaeeef4644c
p954
aVhttp://128.32.78.37:8080/activities/58a35824d2fb4131bd806d0d098c3b32
p955
aVhttp://128.32.78.37:8080/activities/e862826bb0644cfe8df9033cadf1be5a
p956
aVhttp://128.32.78.37:8080/activities/590a44ffd8b44424af225ae961356522
p957
aVhttp://128.32.78.37:8080/activities/c699314e8cb84de6a08c99c84e387b12
p958
aVhttp://128.32.78.37:8080/activities/63351e8a4ad6410084befd8f2e498414
p959
aVhttp://128.32.78.37:8080/activities/88a814eabff742b0ab76eeb8bf589c2b
p960
aVhttp://128.32.78.37:8080/activities/dcc716630aa242d99d023d9a8588174f
p961
aVhttp://128.32.78.37:8080/activities/68ba8679e0384191a2f992395705ddd5
p962
aVhttp://128.32.78.37:8080/activities/45ce6bbd5eee4f89a0a88b09d893ab2a
p963
aVhttp://128.32.78.37:8080/activities/c734ba4bde96457a84fa762d0244634e
p964
aVhttp://128.32.78.37:8080/activities/6d762bb0fdd64625a022ec7cb0733e25
p965
aVhttp://128.32.78.37:8080/activities/b29c614624c24e7495715dbae4fb77f6
p966
aVhttp://128.32.78.37:8080/activities/44ea64439ff74b2c9148820745c14eff
p967
aVhttp://128.32.78.37:8080/activities/0f1a36578b104480811ce2ed8ccd6cbe
p968
aVhttp://128.32.78.37:8080/activities/2ae293325e874f4c9ed5e781a1ab4271
p969
aVhttp://128.32.78.37:8080/activities/09c9cdf2ec5943e1844d58aac81d11e8
p970
aVhttp://128.32.78.37:8080/activities/e54a0e40b90c4a06931c92a791ee4c6b
p971
aVhttp://128.32.78.37:8080/activities/b55bc06675c8495db3a32fc84b6635c9
p972
aVhttp://128.32.78.37:8080/activities/0f57b69bfa0c4a0e9f727f00ad722b9d
p973
aVhttp://128.32.78.37:8080/activities/a51aae6ef9c4413d82163b22faa369b5
p974
aVhttp://128.32.78.37:8080/activities/5c314b54ba8943fab2c72f459792eba3
p975
aVhttp://128.32.78.37:8080/activities/6650ee3f88cc4f3da36f6fa55dc4dbb9
p976
aVhttp://128.32.78.37:8080/activities/c8987890cab4435192f99276d0afa0a4
p977
aVhttp://128.32.78.37:8080/activities/ace6acd5ba5a4bb398f7e3fb5d43d4a1
p978
aVhttp://128.32.78.37:8080/activities/60595be60e6949c68e800289a19d7c23
p979
aVhttp://128.32.78.37:8080/activities/f02ca3003b814251bc20c538e80fe0d8
p980
aVhttp://128.32.78.37:8080/activities/8819cf10dfe94763b996018ddd0724de
p981
aVhttp://128.32.78.37:8080/activities/d53e9c2d4a404c42afecb4bbd5a5bff8
p982
aVhttp://128.32.78.37:8080/activities/ab07f6e0f73248969bd4e989894f01fa
p983
aVhttp://128.32.78.37:8080/activities/144cef053abd4a1c8f23a2ef9c25cd13
p984
aVhttp://128.32.78.37:8080/activities/58e034e3b6db4d4191070af2bf43ff5d
p985
aVhttp://128.32.78.37:8080/activities/5d735d8fba164f23975b6f824ab29744
p986
aVhttp://128.32.78.37:8080/activities/f908352aa7ec4ec7be5752564d172573
p987
aVhttp://128.32.78.37:8080/activities/64660378b84f433db5cd6da27869ab0e
p988
aVhttp://128.32.78.37:8080/activities/2ea6ef3fb0d74c23a1c44f45b17ab2de
p989
aVhttp://128.32.78.37:8080/activities/a4828aa6e23c40ae8b37cff580e45e50
p990
aVhttp://128.32.78.37:8080/activities/abcf872ce97c4c42b13d54dde6983ae4
p991
aVhttp://128.32.78.37:8080/activities/3910d976b8d74c339d5f844edffe1dd1
p992
aVhttp://128.32.78.37:8080/activities/18984c2fe3ed4d6e956c38755ce38bff
p993
aVhttp://128.32.78.37:8080/activities/5fe39c97637d438191d7214176c5e511
p994
aVhttp://128.32.78.37:8080/activities/6e106d05527846baa8637c0a4f5d391a
p995
aVhttp://128.32.78.37:8080/activities/e95a1358d3494e8e9583b10504c0fa8d
p996
aVhttp://128.32.78.37:8080/activities/7f3612c6a001400f95fb22ca5ad9c461
p997
aVhttp://128.32.78.37:8080/activities/1880fd3da1a544bfb7dc3ae0b75f2031
p998
aVhttp://128.32.78.37:8080/activities/b9612570d62b4ef2b937d64a1c5cdc13
p999
aVhttp://128.32.78.37:8080/activities/b76f15a07411428494eed3fae0933666
p1000
aVhttp://128.32.78.37:8080/activities/a62d659780e246a39c93e950f8599746
p1001
aVhttp://128.32.78.37:8080/activities/a1c8f727989e4bc6a406b54ae3c0454d
p1002
aVhttp://128.32.78.37:8080/activities/3154fc1f03bf4bc188e393b8a77870cc
p1003
aVhttp://128.32.78.37:8080/activities/d5bb15a4defe457da507a4f61635fb0a
p1004
aVhttp://128.32.78.37:8080/activities/34593345efae44ba8d01bd6ff32f6d64
p1005
aVhttp://128.32.78.37:8080/activities/88cddcd6281c4a348366302312412b28
p1006
aVhttp://128.32.78.37:8080/activities/25aa9e2e087b4185b37ab6629d69c7da
p1007
aVhttp://128.32.78.37:8080/activities/e9518473dfe3463698e667485ede755b
p1008
aVhttp://128.32.78.37:8080/activities/92f2a47101d64f6492080635ef0e3823
p1009
aVhttp://128.32.78.37:8080/activities/2b0930d638bf480dbe593ffa552d6036
p1010
aVhttp://128.32.78.37:8080/activities/1471cbd7b5a745d98678773ca34b12d6
p1011
aVhttp://128.32.78.37:8080/activities/2a65dce1ba0e4b16afc4a8df85382828
p1012
aVhttp://128.32.78.37:8080/activities/d70b0918e55842aabca41e54982eafc2
p1013
aVhttp://128.32.78.37:8080/activities/618d0d0eff4a40c6a28364d5fa384241
p1014
aVhttp://128.32.78.37:8080/activities/db7734b7b2d34fd796f1fae4d3a51190
p1015
aVhttp://128.32.78.37:8080/activities/a492870c612e48699f35a76e348c1790
p1016
aVhttp://128.32.78.37:8080/activities/af5181c83c2c454abd15c008a3e19c9a
p1017
aVhttp://128.32.78.37:8080/activities/c504b470c5ba4272aab5a3ae95e30d08
p1018
aVhttp://128.32.78.37:8080/activities/a7bdc4e35bcd4b4eb990e7cb12307129
p1019
aVhttp://128.32.78.37:8080/activities/323cd2a8524b43729b8add929403a6b8
p1020
aVhttp://128.32.78.37:8080/activities/5112612412064ff487032f6221f896f1
p1021
aVhttp://128.32.78.37:8080/activities/bce8fe6ea6b0455696b11214fdd32758
p1022
aVhttp://128.32.78.37:8080/activities/752de6e8cf2849f6b1073deeb9064337
p1023
aVhttp://128.32.78.37:8080/activities/c58e04deece74b22b5e76025bbf93527
p1024
aVhttp://128.32.78.37:8080/activities/f30f191189e74168b0d45e350ef7e472
p1025
aVhttp://128.32.78.37:8080/activities/a46deed3f9874465b84da35c365ea9b0
p1026
aVhttp://128.32.78.37:8080/activities/20578128d3db4e6c9aa42156ee5b1813
p1027
aVhttp://128.32.78.37:8080/activities/8a4d3b4d19a14983995c3a82c067456e
p1028
aVhttp://128.32.78.37:8080/activities/f056a5b237be435eb2b5aa6c686ac8b9
p1029
aVhttp://128.32.78.37:8080/activities/12304eb243bf477ebc1da5fc92a8e557
p1030
aVhttp://128.32.78.37:8080/activities/ce60a8243f994e9aafc030dd9a68815c
p1031
aVhttp://128.32.78.37:8080/activities/fdda981ed4fa4357b9561392a943cccc
p1032
aVhttp://128.32.78.37:8080/activities/c4058ec785aa4dfe8ee7597c70be4789
p1033
aVhttp://128.32.78.37:8080/activities/a159997e86c24eaca6905aca146ebd9f
p1034
aVhttp://128.32.78.37:8080/activities/876927fcb4214e2c993aaba412e3fe87
p1035
aVhttp://128.32.78.37:8080/activities/6be728634c3c44c9965985879391da36
p1036
aVhttp://128.32.78.37:8080/activities/dad81574e61f462f8abd7b721bb7b661
p1037
aVhttp://128.32.78.37:8080/activities/49786a2778af4101b06ea3d7594cf5dd
p1038
aVhttp://128.32.78.37:8080/activities/4dbd0406b2824c29a25b706756b1ab9c
p1039
aVhttp://128.32.78.37:8080/activities/a8fda1d49fdd414ea3a4e399fd211eb2
p1040
aVhttp://128.32.78.37:8080/activities/e3daa6961ffd4553b05a2067c5c0f804
p1041
aVhttp://128.32.78.37:8080/activities/7e30174273f84f2d9709934d0cc29603
p1042
aVhttp://128.32.78.37:8080/activities/86049714591f4af7903be8f807644aa0
p1043
aVhttp://128.32.78.37:8080/activities/0d3fdd60e0e54efebe84dbb3d479c4ec
p1044
aVhttp://128.32.78.37:8080/activities/50a110ae3eec420ca877ea74a2f63a11
p1045
aVhttp://128.32.78.37:8080/activities/d8fc45b602854b018f4499a0cf120758
p1046
aVhttp://128.32.78.37:8080/activities/961ff4d0c3204c8bbc28130a0d53132b
p1047
aVhttp://128.32.78.37:8080/activities/678e41569a4947ab9533f82b1d4d1939
p1048
aVhttp://128.32.78.37:8080/activities/e2f4d9ed9390459aa47a8cf79e0d632e
p1049
aVhttp://128.32.78.37:8080/activities/2901bf816a334ca79226d08cdef08fbd
p1050
aVhttp://128.32.78.37:8080/activities/d96825fa462f42df8ef57cd3f96c2273
p1051
aVhttp://128.32.78.37:8080/activities/2a411d42fcd24f52ab80ccfacd3ce214
p1052
aVhttp://128.32.78.37:8080/activities/36db7722e5a647ffaf8b83126abd18e7
p1053
aVhttp://128.32.78.37:8080/activities/cc4ba7958f434d7c9c6ed5301a8ae92b
p1054
aVhttp://128.32.78.37:8080/activities/40bee6b216b84df6bc295c7acc3f87ea
p1055
aVhttp://128.32.78.37:8080/activities/3c2bdd056dde469eabf0571ab95eaec0
p1056
aVhttp://128.32.78.37:8080/activities/6a901b830ce54345a2f6e1276af99e93
p1057
aVhttp://128.32.78.37:8080/activities/8587b46efa0f4248938113cd958075b7
p1058
aVhttp://128.32.78.37:8080/activities/bb85e2628e7c4c24b0baa593449df856
p1059
aVhttp://128.32.78.37:8080/activities/f9233ef683f542d2966c77fcaed3aaa1
p1060
aVhttp://128.32.78.37:8080/activities/7150443fb00b4f029796c4da37d1301d
p1061
aVhttp://128.32.78.37:8080/activities/40e0933a302d4fce93a193326599bdc0
p1062
aVhttp://128.32.78.37:8080/activities/206b9373fc024deaae07fb4a8ac6b457
p1063
aVhttp://128.32.78.37:8080/activities/60c0b1c4ae734967908baa0c4db3baf9
p1064
aVhttp://128.32.78.37:8080/activities/4dbd9d0400504caa947297374e550bf4
p1065
aVhttp://128.32.78.37:8080/activities/2933661c40b7456183f70f57e6ce2b0f
p1066
aVhttp://128.32.78.37:8080/activities/09ebb618edab4d5a9710a4577ba791f5
p1067
aVhttp://128.32.78.37:8080/activities/e1e254f3d0fc495b9f62b71fcc0d153e
p1068
aVhttp://128.32.78.37:8080/activities/29d6074bf93f43d0905da4bd44930053
p1069
aVhttp://128.32.78.37:8080/activities/80cdc566c95643ca821a5d0cf206639a
p1070
aVhttp://128.32.78.37:8080/activities/8fa876c3ad934ae3a8bae1d114ae0322
p1071
aVhttp://128.32.78.37:8080/activities/db0dd9111301459ebd6354df064cc70f
p1072
aVhttp://128.32.78.37:8080/activities/436a4394edf44979977404c3e6b3b621
p1073
aVhttp://128.32.78.37:8080/activities/484f3be27f0948258c77afeec73f7559
p1074
aVhttp://128.32.78.37:8080/activities/d6a973ed81df4d0a831d48281bde46e1
p1075
aVhttp://128.32.78.37:8080/activities/442d89886c1e41fca4f749639e41f562
p1076
aVhttp://128.32.78.37:8080/activities/c31caed68ba74a5abeb1897611b832b7
p1077
aVhttp://128.32.78.37:8080/activities/3cfd8c6d3e5a4e4fb48c3da703d2d4bc
p1078
aVhttp://128.32.78.37:8080/activities/ea53c020f79949efb2fe78bc8d4030c3
p1079
aVhttp://128.32.78.37:8080/activities/22b2aaef2ead495583530a5c8f780361
p1080
aVhttp://128.32.78.37:8080/activities/11ce2427fee44ef0b3b07310756211d3
p1081
aVhttp://128.32.78.37:8080/activities/a67bc600fd1b472eac784048c1635330
p1082
aVhttp://128.32.78.37:8080/activities/c7d5a4ffce6e41c6889b2695b18e29df
p1083
aVhttp://128.32.78.37:8080/activities/347e08aabeb54703b8ad34c7b40c4ca3
p1084
aVhttp://128.32.78.37:8080/activities/1b915daf3c46405c84d1c1a5463dc117
p1085
aVhttp://128.32.78.37:8080/activities/35daa704b7884e29958302abd5b008d2
p1086
aVhttp://128.32.78.37:8080/activities/72142ff1ccd34c46989496e23e11e6e0
p1087
aVhttp://128.32.78.37:8080/activities/4f46c78de27d4a96a207dd3f5008bf8d
p1088
aVhttp://128.32.78.37:8080/activities/98eb606e9aa44736839483308b78468d
p1089
aVhttp://128.32.78.37:8080/activities/ae6b7cc82f264c66a6355daac6743ed7
p1090
aVhttp://128.32.78.37:8080/activities/d05bd52632094fceaf0c268bee14fe0a
p1091
aVhttp://128.32.78.37:8080/activities/e9b84bdea2e14d78af87c32d3dda0c46
p1092
aVhttp://128.32.78.37:8080/activities/822844c8ffae485ab0f9f023ad52c3db
p1093
aVhttp://128.32.78.37:8080/activities/8ae8beb4baca4187b75d4c2ad1585dd7
p1094
aVhttp://128.32.78.37:8080/activities/b40bf18040604581b26257635fa83725
p1095
aVhttp://128.32.78.37:8080/activities/8c57d37c63794678b772328971d6596b
p1096
aVhttp://128.32.78.37:8080/activities/b4d96cd052b941ca892e2a2312066acd
p1097
aVhttp://128.32.78.37:8080/activities/e3c4fd41dc55485a88472bd1c169439d
p1098
aVhttp://128.32.78.37:8080/activities/c53ae51cb0e54f1eb19096c408b93b28
p1099
aVhttp://128.32.78.37:8080/activities/fd60dd8289fc40f0b674d2f049784e34
p1100
aVhttp://128.32.78.37:8080/activities/4f465fe428f945979e6f286cd515d89e
p1101
aVhttp://128.32.78.37:8080/activities/95435faf590848a99582300a7b5aeedf
p1102
aVhttp://128.32.78.37:8080/activities/88406e030c614370bbc3788744c31970
p1103
aVhttp://128.32.78.37:8080/activities/1ea266b26b9b489db8d63cd2d9ac4382
p1104
aVhttp://128.32.78.37:8080/activities/6c82a5d3ec6444d899bcef2ccdbfde5b
p1105
aVhttp://128.32.78.37:8080/activities/fe02f0a4e85f4054af15d0b5a4f9bcc9
p1106
aVhttp://128.32.78.37:8080/activities/2bbfc3435cac4e0bac5d9f327ee1f597
p1107
aVhttp://128.32.78.37:8080/activities/b14b056f36be4e119b6660966fb7e315
p1108
aVhttp://128.32.78.37:8080/activities/750d68862bd5422b93820e3203a7d831
p1109
aVhttp://128.32.78.37:8080/activities/d01bf6000b364795ac7730a66e2324c9
p1110
aVhttp://128.32.78.37:8080/activities/d39534751ef74ae69e0ccd4256694930
p1111
aVhttp://128.32.78.37:8080/activities/4de23a4fc83046c0bcf082ba5db3417c
p1112
aVhttp://128.32.78.37:8080/activities/55a9176fcd804ee7b654407695a358db
p1113
aVhttp://128.32.78.37:8080/activities/04bdd9beef2a44539d8e87c525f84522
p1114
aVhttp://128.32.78.37:8080/activities/8213a8503be24ebf9ae4cd92121b164a
p1115
aVhttp://128.32.78.37:8080/activities/f4cf9396f09c482690ff4fa2f5fbc13a
p1116
aVhttp://128.32.78.37:8080/activities/06720dba8482410ca0edf56cec40586a
p1117
aVhttp://128.32.78.37:8080/activities/b766d3b7b971431c97debc9e36f4c8a6
p1118
aVhttp://128.32.78.37:8080/activities/ebeae1bb33874685bef65c0ba2070860
p1119
aVhttp://128.32.78.37:8080/activities/930e9ea6ded3493c8617db50f95b39a1
p1120
aVhttp://128.32.78.37:8080/activities/1073628760d941bbb1e1e3853332ead4
p1121
aVhttp://128.32.78.37:8080/activities/302ec745bf794176a7059c4aca58ee6e
p1122
aVhttp://128.32.78.37:8080/activities/27f2ed5f310c41269d70ed932c911b43
p1123
aVhttp://128.32.78.37:8080/activities/fb724558a47246109c487efde31984a1
p1124
aVhttp://128.32.78.37:8080/activities/983172440df94f35873836887c8d84f3
p1125
aVhttp://128.32.78.37:8080/activities/2322e6bc866948769e5617f6dc3ab2b7
p1126
aVhttp://128.32.78.37:8080/activities/c3552db1ea10422d8c98a7ef46c59727
p1127
aVhttp://128.32.78.37:8080/activities/b3972b3851074f7ca38ddbe865b34770
p1128
aVhttp://128.32.78.37:8080/activities/b41f65dcd4914085b43f140860074c6d
p1129
aVhttp://128.32.78.37:8080/activities/5bdda85b6edf404194d2e08fe32ec4b1
p1130
a.